
CO2_Semaphore.elf:     file format elf32-avr

Sections:
Idx Name          Size      VMA       LMA       File off  Algn
  0 .data         0000009e  00800100  0000215e  000021f2  2**0
                  CONTENTS, ALLOC, LOAD, DATA
  1 .text         0000215e  00000000  00000000  00000094  2**1
                  CONTENTS, ALLOC, LOAD, READONLY, CODE
  2 .bss          00000233  0080019e  0080019e  00002290  2**0
                  ALLOC
  3 .comment      00000030  00000000  00000000  00002290  2**0
                  CONTENTS, READONLY
  4 .note.gnu.avr.deviceinfo 00000040  00000000  00000000  000022c0  2**2
                  CONTENTS, READONLY
  5 .debug_aranges 00000478  00000000  00000000  00002300  2**0
                  CONTENTS, READONLY, DEBUGGING
  6 .debug_info   00007262  00000000  00000000  00002778  2**0
                  CONTENTS, READONLY, DEBUGGING
  7 .debug_abbrev 0000203b  00000000  00000000  000099da  2**0
                  CONTENTS, READONLY, DEBUGGING
  8 .debug_line   00003140  00000000  00000000  0000ba15  2**0
                  CONTENTS, READONLY, DEBUGGING
  9 .debug_frame  00000908  00000000  00000000  0000eb58  2**2
                  CONTENTS, READONLY, DEBUGGING
 10 .debug_str    000020b4  00000000  00000000  0000f460  2**0
                  CONTENTS, READONLY, DEBUGGING
 11 .debug_loc    00002659  00000000  00000000  00011514  2**0
                  CONTENTS, READONLY, DEBUGGING
 12 .debug_ranges 00000440  00000000  00000000  00013b6d  2**0
                  CONTENTS, READONLY, DEBUGGING

Disassembly of section .text:

00000000 <__vectors>:
       0:	0c 94 fd 01 	jmp	0x3fa	; 0x3fa <__ctors_end>
       4:	0c 94 21 0f 	jmp	0x1e42	; 0x1e42 <__vector_1>
       8:	0c 94 1a 02 	jmp	0x434	; 0x434 <__bad_interrupt>
       c:	0c 94 1a 02 	jmp	0x434	; 0x434 <__bad_interrupt>
      10:	0c 94 1a 02 	jmp	0x434	; 0x434 <__bad_interrupt>
      14:	0c 94 1a 02 	jmp	0x434	; 0x434 <__bad_interrupt>
      18:	0c 94 1a 02 	jmp	0x434	; 0x434 <__bad_interrupt>
      1c:	0c 94 10 0f 	jmp	0x1e20	; 0x1e20 <__vector_7>
      20:	0c 94 1a 02 	jmp	0x434	; 0x434 <__bad_interrupt>
      24:	0c 94 1a 02 	jmp	0x434	; 0x434 <__bad_interrupt>
      28:	0c 94 1a 02 	jmp	0x434	; 0x434 <__bad_interrupt>
      2c:	0c 94 1a 02 	jmp	0x434	; 0x434 <__bad_interrupt>
      30:	0c 94 1a 02 	jmp	0x434	; 0x434 <__bad_interrupt>
      34:	0c 94 1a 02 	jmp	0x434	; 0x434 <__bad_interrupt>
      38:	0c 94 1a 02 	jmp	0x434	; 0x434 <__bad_interrupt>
      3c:	0c 94 1a 02 	jmp	0x434	; 0x434 <__bad_interrupt>
      40:	0c 94 1a 02 	jmp	0x434	; 0x434 <__bad_interrupt>
      44:	0c 94 1a 02 	jmp	0x434	; 0x434 <__bad_interrupt>
      48:	0c 94 39 0f 	jmp	0x1e72	; 0x1e72 <__vector_18>
      4c:	0c 94 5d 0f 	jmp	0x1eba	; 0x1eba <__vector_19>
      50:	0c 94 1a 02 	jmp	0x434	; 0x434 <__bad_interrupt>
      54:	0c 94 1a 02 	jmp	0x434	; 0x434 <__bad_interrupt>
      58:	0c 94 1a 02 	jmp	0x434	; 0x434 <__bad_interrupt>
      5c:	0c 94 1a 02 	jmp	0x434	; 0x434 <__bad_interrupt>
      60:	0c 94 81 0f 	jmp	0x1f02	; 0x1f02 <__vector_24>
      64:	0c 94 1a 02 	jmp	0x434	; 0x434 <__bad_interrupt>
      68:	28 08       	sbc	r2, r8
      6a:	4c 06       	cpc	r4, r28
      6c:	56 06       	cpc	r5, r22
      6e:	83 06       	cpc	r8, r19
      70:	8c 06       	cpc	r8, r28
      72:	b1 06       	cpc	r11, r17
      74:	c3 06       	cpc	r12, r19
      76:	fd 06       	cpc	r15, r29
      78:	8d 0d       	add	r24, r13
      7a:	98 0c       	add	r9, r8
      7c:	a0 0c       	add	r10, r0
      7e:	b2 0c       	add	r11, r2
      80:	cb 0c       	add	r12, r11
      82:	dc 0c       	add	r13, r12
      84:	f6 0c       	add	r15, r6
      86:	26 0d       	add	r18, r6
      88:	37 0d       	add	r19, r7
      8a:	42 0d       	add	r20, r2
      8c:	52 0d       	add	r21, r2

0000008e <__trampolines_end>:
      8e:	21 00       	.word	0x0021	; ????

00000090 <cmd_get_data>:
      90:	ff 01 86 00 00 00 00 00 79                          ........y

00000099 <cmd_set_abc>:
      99:	ff 01 79 00 00 00 00 00 86                          ..y......

000000a2 <cmd_set_range>:
      a2:	ff 01 99 00 00 00 13 88 cb                          .........

000000ab <Null_Menu>:
	...

000000b6 <cc_char_space>:
      b6:	20 20 20 26 20 20 20 26 20 20 20 24 00                 &   &   $.

000000c3 <cc_char_colon>:
      c3:	20 20 20 26 20 02 20 26 20 02 20 24 00                 & . & . $.

000000d0 <cc_char_f>:
      d0:	05 02 01 26 ff 02 20 26 04 20 20 24 00              ...&.. &.  $.

000000dd <cc_char_e>:
      dd:	05 02 01 26 ff 02 20 26 04 02 03 24 00              ...&.. &...$.

000000ea <cc_char_d>:
      ea:	06 02 06 26 ff 20 ff 26 03 02 03 24 00              ...&. .&...$.

000000f7 <cc_char_c>:
      f7:	05 02 01 26 ff 20 20 26 04 02 03 24 00              ...&.  &...$.

00000104 <cc_char_b>:
     104:	05 02 06 26 ff 02 07 26 04 02 03 24 00              ...&...&...$.

00000111 <cc_char_a>:
     111:	05 02 06 26 ff 02 ff 26 04 20 03 24 00              ...&...&. .$.

0000011e <cc_char_9>:
     11e:	05 02 06 26 04 02 ff 26 04 02 03 24 00              ...&...&...$.

0000012b <cc_char_8>:
     12b:	05 02 06 26 ff 02 ff 26 04 02 03 24 00              ...&...&...$.

00000138 <cc_char_7>:
     138:	00 02 06 26 20 05 03 26 20 04 20 24 00              ...& ..& . $.

00000145 <cc_char_6>:
     145:	05 02 01 26 ff 02 06 26 04 02 03 24 00              ...&...&...$.

00000152 <cc_char_5>:
     152:	05 02 01 26 04 02 06 26 04 02 03 24 00              ...&...&...$.

0000015f <cc_char_4>:
     15f:	05 20 06 26 04 02 ff 26 20 20 03 24 00              . .&...&  .$.

0000016c <cc_char_3>:
     16c:	00 02 06 26 20 02 06 26 04 02 03 24 00              ...& ..&...$.

00000179 <cc_char_2>:
     179:	00 02 06 26 05 02 03 26 04 02 03 24 00              ...&...&...$.

00000186 <cc_char_1>:
     186:	00 ff fe 26 20 ff 20 26 04 02 03 24 00              ...& . &...$.

00000193 <cc_char_0>:
     193:	05 02 06 26 ff 20 ff 26 04 02 03 24 00              ...&. .&...$.

000001a0 <cc_smb8>:
     1a0:	18 1c 1e 1f 1f 1e 1c 18                             ........

000001a8 <cc_smb7>:
     1a8:	18 1e 1e 1f 1f 1f 1f 1f                             ........

000001b0 <cc_smb6>:
     1b0:	03 0f 0f 1f 1f 1f 1f 1f                             ........

000001b8 <cc_smb5>:
     1b8:	1f 0f 0f 03 00 00 00 00                             ........

000001c0 <cc_smb4>:
     1c0:	1f 1e 1e 18 00 00 00 00                             ........

000001c8 <cc_smb3>:
     1c8:	1f 1f 1f 1f 00 00 00 00                             ........

000001d0 <cc_smb2>:
     1d0:	18 1e 1e 1f 00 00 00 00                             ........

000001d8 <cc_smb1>:
     1d8:	03 0f 0f 1f 00 00 00 00                             ........

000001e0 <pow5Table16>:
     1e0:	10 27 e8 03 64 00 0a 00 01 00                       .'..d.....

000001ea <pow3Table8>:
     1ea:	64 0a 01                                            d..

000001ed <m_s5i4>:
     1ed:	ab 00 f8 01 19 02 ab 00 00 e0 02                    ...........

000001f8 <m_s5i3>:
     1f8:	ed 01 03 02 19 02 ab 00 00 ef 02                    ...........

00000203 <m_s5i2>:
     203:	f8 01 0e 02 19 02 ab 00 00 01 03                    ...........

0000020e <m_s5i1>:
     20e:	03 02 ab 00 19 02 a8 02 00 d0 02                    ...........

00000219 <m_s1i3>:
     219:	ab 00 9d 02 ab 00 0e 02 00 0b 03                    ...........

00000224 <m_s2i4>:
     224:	ab 00 50 02 9d 02 ab 00 00 16 03                    ..P........

0000022f <m_s4i3>:
     22f:	ab 00 3a 02 50 02 ab 00 00 24 03                    ..:.P....$.

0000023a <m_s4i2>:
     23a:	2f 02 45 02 50 02 ab 00 00 31 03                    /.E.P....1.

00000245 <m_s4i1>:
     245:	3a 02 ab 00 50 02 92 02 00 d0 02                    :...P......

00000250 <m_s2i3>:
     250:	24 02 87 02 9d 02 45 02 00 3e 03                    $.....E..>.

0000025b <m_s3i4>:
     25b:	ab 00 66 02 87 02 ab 00 00 44 03                    ..f......D.

00000266 <m_s3i3>:
     266:	5b 02 71 02 87 02 ab 00 00 50 03                    [.q......P.

00000271 <m_s3i2>:
     271:	66 02 7c 02 87 02 ab 00 00 5b 03                    f.|......[.

0000027c <m_s3i1>:
     27c:	71 02 ab 00 87 02 92 02 00 d0 02                    q..........

00000287 <m_s2i2>:
     287:	50 02 92 02 9d 02 7c 02 00 66 03                    P.....|..f.

00000292 <m_s2i1>:
     292:	87 02 ab 00 9d 02 a8 02 00 d0 02                    ...........

0000029d <m_s1i2>:
     29d:	19 02 a8 02 ab 00 92 02 00 6c 03                    .........l.

000002a8 <m_s1i1>:
     2a8:	9d 02 ab 00 ab 00 ab 00 01 d4 02                    ...........

000002b3 <strNULL>:
	...

000002b4 <LNG_SUNDAY>:
     2b4:	53 75 6e 00                                         Sun.

000002b8 <LNG_SATURDAY>:
     2b8:	53 61 74 00                                         Sat.

000002bc <LNG_FRIDAY>:
     2bc:	46 72 69 00                                         Fri.

000002c0 <LNG_THURSDAY>:
     2c0:	54 68 75 00                                         Thu.

000002c4 <LNG_WEDNESDAY>:
     2c4:	57 65 64 00                                         Wed.

000002c8 <LNG_TUESDAY>:
     2c8:	54 75 65 00                                         Tue.

000002cc <LNG_MONDAY>:
     2cc:	4d 6f 6e 00                                         Mon.

000002d0 <LNG_MENU_ITEM_UP>:
     2d0:	2a 55 70 00                                         *Up.

000002d4 <LNG_MENU_ITEM_MAIN_SCREEN>:
     2d4:	4d 61 69 6e 20 73 63 72 65 65 6e 00                 Main screen.

000002e0 <LNG_MENU_ITEM_MONITORING_H>:
     2e0:	48 75 6d 69 64 69 74 79 20 47 72 61 70 68 00        Humidity Graph.

000002ef <LNG_MENU_ITEM_MONITORING_T>:
     2ef:	54 65 6d 70 65 72 61 74 75 72 65 20 47 72 61 70     Temperature Grap
     2ff:	68 00                                               h.

00000301 <LNG_MENU_ITEM_MONITORING_CO2>:
     301:	43 4f 32 20 47 72 61 70 68 00                       CO2 Graph.

0000030b <LNG_MENU_ITEM_MONITORING>:
     30b:	4d 6f 6e 69 74 6f 72 69 6e 67 00                    Monitoring.

00000316 <LNG_MENU_ITEM_SETTINGS_LCD_BACKLIGHT>:
     316:	4c 43 44 20 42 61 63 6b 6c 69 67 68 74 00           LCD Backlight.

00000324 <LNG_MENU_ITEM_SETTINGS_ALARM_BUZZER>:
     324:	42 75 7a 7a 65 72 20 73 65 74 75 70 00              Buzzer setup.

00000331 <LNG_MENU_ITEM_SETTINGS_ALARM_LEVELS>:
     331:	4c 65 76 65 6c 73 20 73 65 74 75 70 00              Levels setup.

0000033e <LNG_MENU_ITEM_SETTINGS_ALARM>:
     33e:	41 6c 61 72 6d 00                                   Alarm.

00000344 <LNG_MENU_ITEM_SETTINGS_CLOCK_TIME_CAL>:
     344:	43 61 6c 69 62 72 61 74 69 6f 6e 00                 Calibration.

00000350 <LNG_MENU_ITEM_SETTINGS_CLOCK_TIME_DATE>:
     350:	44 61 74 65 20 73 65 74 75 70 00                    Date setup.

0000035b <LNG_MENU_ITEM_SETTINGS_CLOCK_TIME_SETUP>:
     35b:	54 69 6d 65 20 73 65 74 75 70 00                    Time setup.

00000366 <LNG_MENU_ITEM_SETTINGS_CLOCK>:
     366:	43 6c 6f 63 6b 00                                   Clock.

0000036c <LNG_MENU_ITEM_SETTINGS>:
     36c:	53 65 74 74 69 6e 67 73 00                          Settings.

00000375 <LNG_OK>:
     375:	4f 4b 00                                            OK.

00000378 <LNG_FAIL>:
     378:	46 41 49 4c 00                                      FAIL.

0000037d <LNG_SMB_SPACE>:
     37d:	20 00                                                .

0000037f <LNG_SMB_MINUS>:
     37f:	2d 00                                               -.

00000381 <LNG_SMB_POINT>:
     381:	2e 00                                               ..

00000383 <LNG_SMB_COLON>:
     383:	3a 00                                               :.

00000385 <LNG_SMB_ANGLE_BRACKET_RIGHT>:
     385:	3e 00                                               >.

00000387 <LNG_DM_MAIN_S4>:
     387:	20 20 20 df 43 20 20 20 20 25 20 20 20 20 20 20        .C    %      
     397:	20 70 70 6d 00                                       ppm.

0000039c <LNG_DM1_S4>:
     39c:	20 2d 3e 20 43 4f 32 20 2e 2e 2e 00                  -> CO2 ....

000003a8 <LNG_DM1_S3>:
     3a8:	20 2d 3e 20 44 48 54 20 2e 2e 2e 0d 0a 00            -> DHT ......

000003b6 <LNG_DM1_S2>:
     3b6:	20 2d 3e 20 52 54 43 20 2e 2e 2e 0d 0a 00            -> RTC ......

000003c4 <LNG_DM1_S1>:
     3c4:	50 65 72 69 70 68 65 72 61 6c 20 70 72 65 73 65     Peripheral prese
     3d4:	6e 63 65 3a 0d 0a 00                                nce:...

000003db <LNG_SW_VERSION>:
     3db:	53 57 3a 20 31 2e 30 00                             SW: 1.0.

000003e3 <LNG_HW_VERSION>:
     3e3:	48 57 3a 20 31 2e 30 00                             HW: 1.0.

000003eb <LNG_SPLASH_LOGO_S4>:
     3eb:	53 45 4d 41 50 48 4f 52 45 00                       SEMAPHORE.

000003f5 <LNG_SPLASH_LOGO_S1_1>:
     3f5:	32 00                                               2.

000003f7 <LNG_SPLASH_LOGO_S1>:
     3f7:	43 30 00                                            C0.

000003fa <__ctors_end>:
     3fa:	11 24       	eor	r1, r1
     3fc:	1f be       	out	0x3f, r1	; 63
     3fe:	cf ef       	ldi	r28, 0xFF	; 255
     400:	d8 e0       	ldi	r29, 0x08	; 8
     402:	de bf       	out	0x3e, r29	; 62
     404:	cd bf       	out	0x3d, r28	; 61

00000406 <__do_copy_data>:
     406:	11 e0       	ldi	r17, 0x01	; 1
     408:	a0 e0       	ldi	r26, 0x00	; 0
     40a:	b1 e0       	ldi	r27, 0x01	; 1
     40c:	ee e5       	ldi	r30, 0x5E	; 94
     40e:	f1 e2       	ldi	r31, 0x21	; 33
     410:	02 c0       	rjmp	.+4      	; 0x416 <__do_copy_data+0x10>
     412:	05 90       	lpm	r0, Z+
     414:	0d 92       	st	X+, r0
     416:	ae 39       	cpi	r26, 0x9E	; 158
     418:	b1 07       	cpc	r27, r17
     41a:	d9 f7       	brne	.-10     	; 0x412 <__do_copy_data+0xc>

0000041c <__do_clear_bss>:
     41c:	23 e0       	ldi	r18, 0x03	; 3
     41e:	ae e9       	ldi	r26, 0x9E	; 158
     420:	b1 e0       	ldi	r27, 0x01	; 1
     422:	01 c0       	rjmp	.+2      	; 0x426 <.do_clear_bss_start>

00000424 <.do_clear_bss_loop>:
     424:	1d 92       	st	X+, r1

00000426 <.do_clear_bss_start>:
     426:	a1 3d       	cpi	r26, 0xD1	; 209
     428:	b2 07       	cpc	r27, r18
     42a:	e1 f7       	brne	.-8      	; 0x424 <.do_clear_bss_loop>
     42c:	0e 94 e0 0f 	call	0x1fc0	; 0x1fc0 <main>
     430:	0c 94 ad 10 	jmp	0x215a	; 0x215a <_exit>

00000434 <__bad_interrupt>:
     434:	0c 94 00 00 	jmp	0	; 0x0 <__vectors>

00000438 <DoNothing>:
	}
}


void DoNothing(void)
{
     438:	08 95       	ret

0000043a <I2C_TWIService>:
/************************************************************************/
/* FUNCTIONS                                                            */
/************************************************************************/
inline void I2C_TWIService(void)
{
	switch(TWSR & 0xF8) {
     43a:	80 91 b9 00 	lds	r24, 0x00B9	; 0x8000b9 <__TEXT_REGION_LENGTH__+0x7e00b9>
     43e:	88 7f       	andi	r24, 0xF8	; 248
     440:	88 32       	cpi	r24, 0x28	; 40
     442:	09 f4       	brne	.+2      	; 0x446 <I2C_TWIService+0xc>
     444:	5e c0       	rjmp	.+188    	; 0x502 <I2C_TWIService+0xc8>
     446:	70 f4       	brcc	.+28     	; 0x464 <I2C_TWIService+0x2a>
     448:	80 31       	cpi	r24, 0x10	; 16
     44a:	91 f1       	breq	.+100    	; 0x4b0 <I2C_TWIService+0x76>
     44c:	28 f4       	brcc	.+10     	; 0x458 <I2C_TWIService+0x1e>
     44e:	88 23       	and	r24, r24
     450:	f1 f0       	breq	.+60     	; 0x48e <I2C_TWIService+0x54>
     452:	88 30       	cpi	r24, 0x08	; 8
     454:	31 f1       	breq	.+76     	; 0x4a2 <I2C_TWIService+0x68>
     456:	08 95       	ret
     458:	88 31       	cpi	r24, 0x18	; 24
     45a:	d1 f1       	breq	.+116    	; 0x4d0 <I2C_TWIService+0x96>
     45c:	80 32       	cpi	r24, 0x20	; 32
     45e:	09 f4       	brne	.+2      	; 0x462 <I2C_TWIService+0x28>
     460:	41 c0       	rjmp	.+130    	; 0x4e4 <I2C_TWIService+0xaa>
     462:	08 95       	ret
     464:	80 34       	cpi	r24, 0x40	; 64
     466:	09 f4       	brne	.+2      	; 0x46a <I2C_TWIService+0x30>
     468:	a9 c0       	rjmp	.+338    	; 0x5bc <I2C_TWIService+0x182>
     46a:	38 f4       	brcc	.+14     	; 0x47a <I2C_TWIService+0x40>
     46c:	80 33       	cpi	r24, 0x30	; 48
     46e:	09 f4       	brne	.+2      	; 0x472 <I2C_TWIService+0x38>
     470:	89 c0       	rjmp	.+274    	; 0x584 <I2C_TWIService+0x14a>
     472:	88 33       	cpi	r24, 0x38	; 56
     474:	09 f4       	brne	.+2      	; 0x478 <I2C_TWIService+0x3e>
     476:	92 c0       	rjmp	.+292    	; 0x59c <I2C_TWIService+0x162>
     478:	08 95       	ret
     47a:	80 35       	cpi	r24, 0x50	; 80
     47c:	09 f4       	brne	.+2      	; 0x480 <I2C_TWIService+0x46>
     47e:	a1 c0       	rjmp	.+322    	; 0x5c2 <I2C_TWIService+0x188>
     480:	88 35       	cpi	r24, 0x58	; 88
     482:	09 f4       	brne	.+2      	; 0x486 <I2C_TWIService+0x4c>
     484:	ba c0       	rjmp	.+372    	; 0x5fa <I2C_TWIService+0x1c0>
     486:	88 34       	cpi	r24, 0x48	; 72
     488:	09 f0       	breq	.+2      	; 0x48c <I2C_TWIService+0x52>
     48a:	d0 c0       	rjmp	.+416    	; 0x62c <I2C_TWIService+0x1f2>
     48c:	2b c0       	rjmp	.+86     	; 0x4e4 <I2C_TWIService+0xaa>

		// Bus error due to an illegal START or STOP condition
		case I2C_STATE_M_BUS_FAIL: {
			// Set I2C Error
			i2c.error = I2C_ERROR_BUS_FAIL;
     48e:	84 e0       	ldi	r24, 0x04	; 4
     490:	80 93 ec 01 	sts	0x01EC, r24	; 0x8001ec <i2c+0x5>
			// Set TWI register flags
			TWCR	=	0<<TWSTA |					// Not START
     494:	85 e9       	ldi	r24, 0x95	; 149
     496:	80 93 bc 00 	sts	0x00BC, r24	; 0x8000bc <__TEXT_REGION_LENGTH__+0x7e00bc>
						1<<TWINT |					// Flush TWI interrupt flag
						I2C_SLAVE_MODE<<TWEA |		// Enable ACK if SLAVE mode enabled
						1<<TWEN |					// Enable TWI operation
						1<<TWIE;					// Enable TWI interrupt
			// Flush I2C busy flag
			i2c._busy = 0;
     49a:	10 92 e7 01 	sts	0x01E7, r1	; 0x8001e7 <i2c>
			// Set I2C error flag
			i2c._error = 1;
     49e:	81 e0       	ldi	r24, 0x01	; 1
     4a0:	29 c0       	rjmp	.+82     	; 0x4f4 <I2C_TWIService+0xba>
		}

		// A START condition has been transmitted
		case I2C_STATE_M_START: {
			// Set R/W flag by mode
			if(i2c.transmit_type == I2C_TRANSMIT_TYPE_SARP) {
     4a2:	90 91 eb 01 	lds	r25, 0x01EB	; 0x8001eb <i2c+0x4>
     4a6:	80 91 ed 01 	lds	r24, 0x01ED	; 0x8001ed <i2c+0x6>
     4aa:	91 11       	cpse	r25, r1
     4ac:	09 c0       	rjmp	.+18     	; 0x4c0 <I2C_TWIService+0x86>
     4ae:	06 c0       	rjmp	.+12     	; 0x4bc <I2C_TWIService+0x82>
		}

		// A repeated START condition has been transmitted
		case I2C_STATE_M_RESTART: {
			// Set R/W flag by mode
			if(i2c.transmit_type == I2C_TRANSMIT_TYPE_SAWSARP) {
     4b0:	90 91 eb 01 	lds	r25, 0x01EB	; 0x8001eb <i2c+0x4>
     4b4:	80 91 ed 01 	lds	r24, 0x01ED	; 0x8001ed <i2c+0x6>
     4b8:	92 30       	cpi	r25, 0x02	; 2
     4ba:	11 f4       	brne	.+4      	; 0x4c0 <I2C_TWIService+0x86>
				// Set to 1(W) lower bit in address - READ MODE
				i2c.master.slave_addr |= 0x01;
     4bc:	81 60       	ori	r24, 0x01	; 1
     4be:	01 c0       	rjmp	.+2      	; 0x4c2 <I2C_TWIService+0x88>
				} else {
				// Set to 0(R) lower bit in address - WRITE MODE
				i2c.master.slave_addr &= 0xFE;
     4c0:	8e 7f       	andi	r24, 0xFE	; 254
     4c2:	80 93 ed 01 	sts	0x01ED, r24	; 0x8001ed <i2c+0x6>
			}
			// Set SLAVE address
			TWDR = i2c.master.slave_addr;
     4c6:	80 91 ed 01 	lds	r24, 0x01ED	; 0x8001ed <i2c+0x6>
     4ca:	80 93 bb 00 	sts	0x00BB, r24	; 0x8000bb <__TEXT_REGION_LENGTH__+0x7e00bb>
     4ce:	56 c0       	rjmp	.+172    	; 0x57c <I2C_TWIService+0x142>
		}

		// SLA+W has been transmitted; ACK has been received
		case I2C_STATE_M_SLA_W_ACK: {
			// Prepare and send data by mode
			if(i2c.page.q_length) { // <- Need to send start page address word
     4d0:	90 91 15 02 	lds	r25, 0x0215	; 0x800215 <i2c+0x2e>
     4d4:	91 11       	cpse	r25, r1
     4d6:	3e c0       	rjmp	.+124    	; 0x554 <I2C_TWIService+0x11a>
				TWDR = i2c.page.buff[i2c.page.p_buff];
				// Increment page address buffer and control overflow
				if(i2c.page.p_buff++ >= I2C_PAGE_WORD_LENGTH) i2c.page.p_buff=0;
				// Decrement page address queue
				i2c.page.q_length--;
				} else if(i2c.master.q_length) { // <- Directly send data
     4d8:	90 91 f1 01 	lds	r25, 0x01F1	; 0x8001f1 <i2c+0xa>
     4dc:	91 11       	cpse	r25, r1
     4de:	1e c0       	rjmp	.+60     	; 0x51c <I2C_TWIService+0xe2>
				// Decrement data byte counter queue
				i2c.master.q_length--;
				} else { // <- Another state is wrong - send STOP
				//> The byte is last
				// Set TWI register flags
				TWCR	=	0<<TWSTA |					// Not START
     4e0:	85 e9       	ldi	r24, 0x95	; 149
     4e2:	88 c0       	rjmp	.+272    	; 0x5f4 <I2C_TWIService+0x1ba>
		}

		// SLA+W has been transmitted; NOT ACK has been received
		case I2C_STATE_M_SLA_W_NACK: {
			// Set I2C Error
			i2c.error = I2C_ERROR_DEVICE_NOT_FOUND;
     4e4:	81 e0       	ldi	r24, 0x01	; 1
     4e6:	80 93 ec 01 	sts	0x01EC, r24	; 0x8001ec <i2c+0x5>
			// Set TWI register flags
			TWCR	=	0<<TWSTA |							// Not START
     4ea:	95 e9       	ldi	r25, 0x95	; 149
     4ec:	90 93 bc 00 	sts	0x00BC, r25	; 0x8000bc <__TEXT_REGION_LENGTH__+0x7e00bc>
						1<<TWINT |							// Flush TWI interrupt flag
						I2C_SLAVE_MODE<<TWEA |				// Enable ACK if SLAVE mode enabled
						1<<TWEN |							// Enable TWI operation
						1<<TWIE;							// Enable TWI interrupt
			// Flush I2C busy flag
			i2c._busy = 0;
     4f0:	10 92 e7 01 	sts	0x01E7, r1	; 0x8001e7 <i2c>
			// Set I2C error flag
			i2c._error = 1;
     4f4:	80 93 e9 01 	sts	0x01E9, r24	; 0x8001e9 <i2c+0x2>
			// Run error handling process
			I2C_PROC_ERROR_OUT();
     4f8:	e0 91 12 02 	lds	r30, 0x0212	; 0x800212 <i2c+0x2b>
     4fc:	f0 91 13 02 	lds	r31, 0x0213	; 0x800213 <i2c+0x2c>
     500:	94 c0       	rjmp	.+296    	; 0x62a <I2C_TWIService+0x1f0>
		}

		// Data byte has been transmitted to slave; ACK has been received
		case I2C_STATE_M_BYTE_ACK: {
			// Prepare and send data by mode
			if(i2c.transmit_type == I2C_TRANSMIT_TYPE_SAWP) {
     502:	80 91 eb 01 	lds	r24, 0x01EB	; 0x8001eb <i2c+0x4>
     506:	81 30       	cpi	r24, 0x01	; 1
     508:	f1 f4       	brne	.+60     	; 0x546 <I2C_TWIService+0x10c>
				// If all data was transmitted
				if(i2c.page.q_length == 0 && i2c.master.q_length == 0) { // <- Send STOP condition
     50a:	90 91 15 02 	lds	r25, 0x0215	; 0x800215 <i2c+0x2e>
     50e:	91 11       	cpse	r25, r1
     510:	21 c0       	rjmp	.+66     	; 0x554 <I2C_TWIService+0x11a>
     512:	90 91 f1 01 	lds	r25, 0x01F1	; 0x8001f1 <i2c+0xa>
     516:	99 23       	and	r25, r25
     518:	09 f4       	brne	.+2      	; 0x51c <I2C_TWIService+0xe2>
     51a:	7c c0       	rjmp	.+248    	; 0x614 <I2C_TWIService+0x1da>
					// Decrement page address queue
					i2c.page.q_length--;
				} else if(i2c.master.q_length) { // <- Send next data byte
					//> The byte is not last
					// Load data from buffer to I2C output register
					TWDR = i2c.master.tx_buff[i2c.master.p_buff];
     51c:	80 91 ee 01 	lds	r24, 0x01EE	; 0x8001ee <i2c+0x7>
     520:	e8 2f       	mov	r30, r24
     522:	f0 e0       	ldi	r31, 0x00	; 0
     524:	e9 51       	subi	r30, 0x19	; 25
     526:	fe 4f       	sbci	r31, 0xFE	; 254
     528:	23 85       	ldd	r18, Z+11	; 0x0b
     52a:	20 93 bb 00 	sts	0x00BB, r18	; 0x8000bb <__TEXT_REGION_LENGTH__+0x7e00bb>
					// Increment buffer send index and control overflow
					if(i2c.master.p_buff++ >= I2C_M_LENGTH_TX_BUFFER) i2c.master.p_buff = 0;
     52e:	84 31       	cpi	r24, 0x14	; 20
     530:	20 f4       	brcc	.+8      	; 0x53a <I2C_TWIService+0x100>
     532:	8f 5f       	subi	r24, 0xFF	; 255
     534:	80 93 ee 01 	sts	0x01EE, r24	; 0x8001ee <i2c+0x7>
     538:	02 c0       	rjmp	.+4      	; 0x53e <I2C_TWIService+0x104>
     53a:	10 92 ee 01 	sts	0x01EE, r1	; 0x8001ee <i2c+0x7>
					// Decrement data byte counter queue
					i2c.master.q_length--;
     53e:	91 50       	subi	r25, 0x01	; 1
     540:	90 93 f1 01 	sts	0x01F1, r25	; 0x8001f1 <i2c+0xa>
     544:	1b c0       	rjmp	.+54     	; 0x57c <I2C_TWIService+0x142>
							I2C_SLAVE_MODE<<TWEA |		// Enable ACK if SLAVE mode enabled
							1<<TWEN |					// Enable TWI operation
							1<<TWIE;					// Enable TWI interrupt
			}
			// Prepare and send data by mode
			if(i2c.transmit_type == I2C_TRANSMIT_TYPE_SAWSARP) {
     546:	82 30       	cpi	r24, 0x02	; 2
     548:	09 f0       	breq	.+2      	; 0x54c <I2C_TWIService+0x112>
     54a:	70 c0       	rjmp	.+224    	; 0x62c <I2C_TWIService+0x1f2>
				// Send page address by page address byte count
				if(i2c.page.q_length) {
     54c:	90 91 15 02 	lds	r25, 0x0215	; 0x800215 <i2c+0x2e>
     550:	99 23       	and	r25, r25
     552:	b1 f0       	breq	.+44     	; 0x580 <I2C_TWIService+0x146>
					//> The page address byte was not last
					// Load page address from page address buffer to I2C output register
					TWDR = i2c.page.buff[i2c.page.p_buff];
     554:	80 91 14 02 	lds	r24, 0x0214	; 0x800214 <i2c+0x2d>
     558:	e8 2f       	mov	r30, r24
     55a:	f0 e0       	ldi	r31, 0x00	; 0
     55c:	e9 51       	subi	r30, 0x19	; 25
     55e:	fe 4f       	sbci	r31, 0xFE	; 254
     560:	27 a5       	ldd	r18, Z+47	; 0x2f
     562:	20 93 bb 00 	sts	0x00BB, r18	; 0x8000bb <__TEXT_REGION_LENGTH__+0x7e00bb>
					// Increment page address buffer
					if(i2c.page.p_buff++ >= I2C_PAGE_WORD_LENGTH) i2c.page.p_buff=0;
     566:	82 30       	cpi	r24, 0x02	; 2
     568:	20 f4       	brcc	.+8      	; 0x572 <I2C_TWIService+0x138>
     56a:	8f 5f       	subi	r24, 0xFF	; 255
     56c:	80 93 14 02 	sts	0x0214, r24	; 0x800214 <i2c+0x2d>
     570:	02 c0       	rjmp	.+4      	; 0x576 <I2C_TWIService+0x13c>
     572:	10 92 14 02 	sts	0x0214, r1	; 0x800214 <i2c+0x2d>
					// Decrement page address queue
					i2c.page.q_length--;
     576:	91 50       	subi	r25, 0x01	; 1
     578:	90 93 15 02 	sts	0x0215, r25	; 0x800215 <i2c+0x2e>
					// Set TWI register flags
					TWCR	=	0<<TWSTA |					// Not START
     57c:	85 e8       	ldi	r24, 0x85	; 133
     57e:	3a c0       	rjmp	.+116    	; 0x5f4 <I2C_TWIService+0x1ba>
								1<<TWEN |					// Enable TWI operation
								1<<TWIE;					// Enable TWI interrupt
				} else {
					//> Last byte of page address was send
					// Set TWI register flags
					TWCR	=	1<<TWSTA |					// Set RESTART condition
     580:	85 ea       	ldi	r24, 0xA5	; 165
     582:	38 c0       	rjmp	.+112    	; 0x5f4 <I2C_TWIService+0x1ba>
		}

		// Data byte has been transmitted; NOT ACK has been received
		case I2C_STATE_M_BYTE_NACK: {
			// Set I2C Error
			i2c.error = I2C_ERROR_RECEIVED_NACK;
     584:	83 e0       	ldi	r24, 0x03	; 3
     586:	80 93 ec 01 	sts	0x01EC, r24	; 0x8001ec <i2c+0x5>
			// Set TWI register flags
			TWCR	=	0<<TWSTA |							// Not START
     58a:	85 e9       	ldi	r24, 0x95	; 149
     58c:	80 93 bc 00 	sts	0x00BC, r24	; 0x8000bc <__TEXT_REGION_LENGTH__+0x7e00bc>
						1<<TWINT |							// Flush TWI interrupt flag
						I2C_SLAVE_MODE<<TWEA |				// Enable ACK if SLAVE mode enabled
						1<<TWEN |							// Enable TWI operation
						1<<TWIE;							// Enable TWI interrupt
			// Flush I2C busy flag
			i2c._busy = 0;
     590:	10 92 e7 01 	sts	0x01E7, r1	; 0x8001e7 <i2c>
			// Set I2C error flag
			i2c._error = 1;
     594:	81 e0       	ldi	r24, 0x01	; 1
     596:	80 93 e9 01 	sts	0x01E9, r24	; 0x8001e9 <i2c+0x2>
     59a:	43 c0       	rjmp	.+134    	; 0x622 <I2C_TWIService+0x1e8>
		}

		// Arbitration lost in SLA+W or data bytes
		case I2C_STATE_M_COLLISION: {
			// Set I2C Error
			i2c.error = I2C_ERROR_LOW_PRIORITY;
     59c:	82 e0       	ldi	r24, 0x02	; 2
     59e:	80 93 ec 01 	sts	0x01EC, r24	; 0x8001ec <i2c+0x5>
			// Flush buffer pointers
			i2c.master.p_buff = 0;
     5a2:	10 92 ee 01 	sts	0x01EE, r1	; 0x8001ee <i2c+0x7>
			i2c.page.p_buff = 0;
     5a6:	10 92 14 02 	sts	0x0214, r1	; 0x800214 <i2c+0x2d>
			// Set TWI register flags
			TWCR	=	1<<TWSTA |							// Set START condition
     5aa:	85 ea       	ldi	r24, 0xA5	; 165
     5ac:	80 93 bc 00 	sts	0x00BC, r24	; 0x8000bc <__TEXT_REGION_LENGTH__+0x7e00bc>
						1<<TWINT |							// Flush TWI interrupt flag
						I2C_SLAVE_MODE<<TWEA |				// Enable ACK if SLAVE mode enabled
						1<<TWEN |							// Enable TWI operation
						1<<TWIE;							// Enable TWI interrupt
			// Flush I2C busy flag
			i2c._busy = 0;
     5b0:	10 92 e7 01 	sts	0x01E7, r1	; 0x8001e7 <i2c>
			// Set I2C error flag
			i2c._error = 1;
     5b4:	81 e0       	ldi	r24, 0x01	; 1
     5b6:	80 93 e9 01 	sts	0x01E9, r24	; 0x8001e9 <i2c+0x2>
			break;
     5ba:	08 95       	ret
		}

		// SLA+R has been transmitted; ACK has been received
		case I2C_STATE_M_SLA_R_ACK: {
			// If next byte will be last for receive
			if(i2c.master.q_length == 1) {
     5bc:	80 91 f1 01 	lds	r24, 0x01F1	; 0x8001f1 <i2c+0xa>
     5c0:	16 c0       	rjmp	.+44     	; 0x5ee <I2C_TWIService+0x1b4>
		}

		// Data byte has been received by master; ACK has been returned
		case I2C_STATE_M_RECEIVE_BYTE: {
			// Store received byte into buffer
			i2c.master.rx_buff[i2c.master.p_buff] = TWDR;
     5c2:	80 91 ee 01 	lds	r24, 0x01EE	; 0x8001ee <i2c+0x7>
     5c6:	90 91 bb 00 	lds	r25, 0x00BB	; 0x8000bb <__TEXT_REGION_LENGTH__+0x7e00bb>
     5ca:	e8 2f       	mov	r30, r24
     5cc:	f0 e0       	ldi	r31, 0x00	; 0
     5ce:	e9 51       	subi	r30, 0x19	; 25
     5d0:	fe 4f       	sbci	r31, 0xFE	; 254
     5d2:	97 8f       	std	Z+31, r25	; 0x1f
			// Increment buffer index
			if(i2c.master.p_buff++ >= I2C_M_LENGTH_RX_BUFFER) i2c.master.p_buff = 0;
     5d4:	8a 30       	cpi	r24, 0x0A	; 10
     5d6:	20 f4       	brcc	.+8      	; 0x5e0 <I2C_TWIService+0x1a6>
     5d8:	8f 5f       	subi	r24, 0xFF	; 255
     5da:	80 93 ee 01 	sts	0x01EE, r24	; 0x8001ee <i2c+0x7>
     5de:	02 c0       	rjmp	.+4      	; 0x5e4 <I2C_TWIService+0x1aa>
     5e0:	10 92 ee 01 	sts	0x01EE, r1	; 0x8001ee <i2c+0x7>
			// Decrement receive queue counter
			i2c.master.q_length--;
     5e4:	80 91 f1 01 	lds	r24, 0x01F1	; 0x8001f1 <i2c+0xa>
     5e8:	81 50       	subi	r24, 0x01	; 1
     5ea:	80 93 f1 01 	sts	0x01F1, r24	; 0x8001f1 <i2c+0xa>
			// Receive next byte with ACK/NACK state
			if(i2c.master.q_length == 1) {
     5ee:	81 30       	cpi	r24, 0x01	; 1
     5f0:	29 f2       	breq	.-118    	; 0x57c <I2C_TWIService+0x142>
							1<<TWEN |						// Enable TWI operation
							1<<TWIE;						// Enable TWI interrupt
			} else {
				//> Next byte will not be last for receive
				// Set TWI register flags
				TWCR	=	0<<TWSTA |						// Not START
     5f2:	85 ec       	ldi	r24, 0xC5	; 197
     5f4:	80 93 bc 00 	sts	0x00BC, r24	; 0x8000bc <__TEXT_REGION_LENGTH__+0x7e00bc>
     5f8:	08 95       	ret
		}

		// Data byte has been received; NOT ACK has been returned
		case I2C_STATE_M_RECEIVE_BYTE_NACK: {
			// Store received byte into buffer
			i2c.master.rx_buff[i2c.master.p_buff] = TWDR;
     5fa:	80 91 bb 00 	lds	r24, 0x00BB	; 0x8000bb <__TEXT_REGION_LENGTH__+0x7e00bb>
     5fe:	e0 91 ee 01 	lds	r30, 0x01EE	; 0x8001ee <i2c+0x7>
     602:	f0 e0       	ldi	r31, 0x00	; 0
     604:	e9 51       	subi	r30, 0x19	; 25
     606:	fe 4f       	sbci	r31, 0xFE	; 254
     608:	87 8f       	std	Z+31, r24	; 0x1f
			// Decrement receive queue counter
			i2c.master.q_length--;
     60a:	80 91 f1 01 	lds	r24, 0x01F1	; 0x8001f1 <i2c+0xa>
     60e:	81 50       	subi	r24, 0x01	; 1
     610:	80 93 f1 01 	sts	0x01F1, r24	; 0x8001f1 <i2c+0xa>
			// Set TWI register flags
			TWCR	=	0<<TWSTA |							// Not START
     614:	85 e9       	ldi	r24, 0x95	; 149
     616:	80 93 bc 00 	sts	0x00BC, r24	; 0x8000bc <__TEXT_REGION_LENGTH__+0x7e00bc>
						1<<TWINT |							// Flush TWI interrupt flag
						I2C_SLAVE_MODE<<TWEA |				// Enable ACK if SLAVE mode enabled
						1<<TWEN |							// Enable TWI operation
						1<<TWIE;							// Enable TWI interrupt
			// Flush I2C busy flag
			i2c._busy = 0;
     61a:	10 92 e7 01 	sts	0x01E7, r1	; 0x8001e7 <i2c>
			// Flush I2C error flag
			i2c._error = 0;
     61e:	10 92 e9 01 	sts	0x01E9, r1	; 0x8001e9 <i2c+0x2>
			// Run normal handling process
			I2C_PROC_MASTER_OUT();
     622:	e0 91 10 02 	lds	r30, 0x0210	; 0x800210 <i2c+0x29>
     626:	f0 91 11 02 	lds	r31, 0x0211	; 0x800211 <i2c+0x2a>
     62a:	09 94       	ijmp
     62c:	08 95       	ret

0000062e <I2C_Init>:
}

void I2C_Init(void)
{
	// Enabling pull up resistors on port pins
	I2C_PORT |= 1<<I2C_PIN_SCL|1<<I2C_PIN_SDA;
     62e:	88 b1       	in	r24, 0x08	; 8
     630:	80 63       	ori	r24, 0x30	; 48
     632:	88 b9       	out	0x08, r24	; 8
	I2C_DDR &= ~(1<<I2C_PIN_SCL|1<<I2C_PIN_SDA);
     634:	87 b1       	in	r24, 0x07	; 7
     636:	8f 7c       	andi	r24, 0xCF	; 207
     638:	87 b9       	out	0x07, r24	; 7
	// Setup I2C bit rate
	TWBR = I2C_TWBR_VALUE;
     63a:	85 e0       	ldi	r24, 0x05	; 5
     63c:	80 93 b8 00 	sts	0x00B8, r24	; 0x8000b8 <__TEXT_REGION_LENGTH__+0x7e00b8>
	TWSR = I2C_TWSR_VALUE;
     640:	10 92 b9 00 	sts	0x00B9, r1	; 0x8000b9 <__TEXT_REGION_LENGTH__+0x7e00b9>
     644:	08 95       	ret

00000646 <I2C_RequestFrom>:
}

uint8_t I2C_RequestFrom(uint8_t addr, uint8_t length, uint8_t word_length, uint16_t word_addr)
{
	// Check last request buffer processed
	if(i2c._rx_lock) return 0;
     646:	90 91 e8 01 	lds	r25, 0x01E8	; 0x8001e8 <i2c+0x1>
     64a:	91 11       	cpse	r25, r1
     64c:	31 c0       	rjmp	.+98     	; 0x6b0 <I2C_RequestFrom+0x6a>
	// Lock I2C to work with our byte
	i2c._busy = 1;
     64e:	91 e0       	ldi	r25, 0x01	; 1
     650:	90 93 e7 01 	sts	0x01E7, r25	; 0x8001e7 <i2c>
	// Lock RX buffer
	i2c._rx_lock = 1;
     654:	90 93 e8 01 	sts	0x01E8, r25	; 0x8001e8 <i2c+0x1>
	// Preparing page address word by his length
	if(word_length > 0) {
     658:	44 23       	and	r20, r20
     65a:	89 f0       	breq	.+34     	; 0x67e <I2C_RequestFrom+0x38>
		i2c.transmit_type = I2C_TRANSMIT_TYPE_SAWSARP;
     65c:	92 e0       	ldi	r25, 0x02	; 2
     65e:	90 93 eb 01 	sts	0x01EB, r25	; 0x8001eb <i2c+0x4>
		if(word_length == 2) {
     662:	42 30       	cpi	r20, 0x02	; 2
     664:	29 f4       	brne	.+10     	; 0x670 <I2C_RequestFrom+0x2a>
			i2c.page.buff[0] = HI(word_addr);
     666:	30 93 16 02 	sts	0x0216, r19	; 0x800216 <i2c+0x2f>
			i2c.page.buff[1] = LO(word_addr);
     66a:	20 93 17 02 	sts	0x0217, r18	; 0x800217 <i2c+0x30>
     66e:	02 c0       	rjmp	.+4      	; 0x674 <I2C_RequestFrom+0x2e>
			} else {
			i2c.page.buff[0] = LO(word_addr);
     670:	20 93 16 02 	sts	0x0216, r18	; 0x800216 <i2c+0x2f>
		}
		// Flush page word buffer pointer
		i2c.page.p_buff = 0;
     674:	10 92 14 02 	sts	0x0214, r1	; 0x800214 <i2c+0x2d>
		// Set page address word length
		i2c.page.q_length = word_length;
     678:	40 93 15 02 	sts	0x0215, r20	; 0x800215 <i2c+0x2e>
     67c:	02 c0       	rjmp	.+4      	; 0x682 <I2C_RequestFrom+0x3c>
	} else {
		i2c.transmit_type = I2C_TRANSMIT_TYPE_SARP;
     67e:	10 92 eb 01 	sts	0x01EB, r1	; 0x8001eb <i2c+0x4>
	}
	// Setup M41T00S slave I2C address
	i2c.master.slave_addr = addr;
     682:	80 93 ed 01 	sts	0x01ED, r24	; 0x8001ed <i2c+0x6>
	// Set asynchronous function state
	i2c.master.onSuccess = &DoNothing;
     686:	8c e1       	ldi	r24, 0x1C	; 28
     688:	92 e0       	ldi	r25, 0x02	; 2
     68a:	90 93 11 02 	sts	0x0211, r25	; 0x800211 <i2c+0x2a>
     68e:	80 93 10 02 	sts	0x0210, r24	; 0x800210 <i2c+0x29>
	i2c.master.onError = &DoNothing;
     692:	90 93 13 02 	sts	0x0213, r25	; 0x800213 <i2c+0x2c>
     696:	80 93 12 02 	sts	0x0212, r24	; 0x800212 <i2c+0x2b>
	// Flush buffer pointer - nothing to transmit
	i2c.master.p_buff = 0;
     69a:	10 92 ee 01 	sts	0x01EE, r1	; 0x8001ee <i2c+0x7>
	// Flush read buffer pointer
	i2c.master.p_read = 0;
     69e:	10 92 f0 01 	sts	0x01F0, r1	; 0x8001f0 <i2c+0x9>
	// Set RX queue length
	i2c.master.q_length = length;
     6a2:	60 93 f1 01 	sts	0x01F1, r22	; 0x8001f1 <i2c+0xa>
	// Start transmitter with START
	TWCR = 	1<<TWSTA|						// Set START condition
     6a6:	85 ea       	ldi	r24, 0xA5	; 165
     6a8:	80 93 bc 00 	sts	0x00BC, r24	; 0x8000bc <__TEXT_REGION_LENGTH__+0x7e00bc>
			1<<TWINT|						// Flush TWI interrupt flag
			I2C_SLAVE_MODE<<TWEA|			// Not ACK
			1<<TWEN|						// Enable TWI operation
			1<<TWIE;						// Enable TWI interrupt
	// Return 1 if buffer is clear
	return 1;
     6ac:	81 e0       	ldi	r24, 0x01	; 1
     6ae:	08 95       	ret
}

uint8_t I2C_RequestFrom(uint8_t addr, uint8_t length, uint8_t word_length, uint16_t word_addr)
{
	// Check last request buffer processed
	if(i2c._rx_lock) return 0;
     6b0:	80 e0       	ldi	r24, 0x00	; 0
			I2C_SLAVE_MODE<<TWEA|			// Not ACK
			1<<TWEN|						// Enable TWI operation
			1<<TWIE;						// Enable TWI interrupt
	// Return 1 if buffer is clear
	return 1;
}
     6b2:	08 95       	ret

000006b4 <I2C_TransmitTo>:

void I2C_TransmitTo(uint8_t *data, uint8_t addr, uint8_t length, uint8_t word_length, uint16_t word_addr)
{
     6b4:	0f 93       	push	r16
     6b6:	1f 93       	push	r17
     6b8:	dc 01       	movw	r26, r24
	// Store data for write to I2C write buffer
	uint8_t *p_data = (void *)data;
	// Flush write buffer pointer
	i2c.master.p_write=0;
     6ba:	10 92 ef 01 	sts	0x01EF, r1	; 0x8001ef <i2c+0x8>
	// Flush queue length
	i2c.master.q_length=0;
     6be:	10 92 f1 01 	sts	0x01F1, r1	; 0x8001f1 <i2c+0xa>
	// Prepare data for transmit
	for(uint8_t i=length; i; i--) {
     6c2:	94 2f       	mov	r25, r20
     6c4:	99 23       	and	r25, r25
     6c6:	81 f0       	breq	.+32     	; 0x6e8 <I2C_TransmitTo+0x34>
		// Overflow control
		if(i2c.master.p_write >= I2C_M_LENGTH_TX_BUFFER) continue;
     6c8:	e0 91 ef 01 	lds	r30, 0x01EF	; 0x8001ef <i2c+0x8>
     6cc:	e4 31       	cpi	r30, 0x14	; 20
     6ce:	50 f4       	brcc	.+20     	; 0x6e4 <I2C_TransmitTo+0x30>
		// Store data into TX buffer
		i2c.master.tx_buff[i2c.master.p_write++] = *(p_data++);
     6d0:	81 e0       	ldi	r24, 0x01	; 1
     6d2:	8e 0f       	add	r24, r30
     6d4:	80 93 ef 01 	sts	0x01EF, r24	; 0x8001ef <i2c+0x8>
     6d8:	8c 91       	ld	r24, X
     6da:	f0 e0       	ldi	r31, 0x00	; 0
     6dc:	e9 51       	subi	r30, 0x19	; 25
     6de:	fe 4f       	sbci	r31, 0xFE	; 254
     6e0:	83 87       	std	Z+11, r24	; 0x0b
     6e2:	11 96       	adiw	r26, 0x01	; 1
	// Flush write buffer pointer
	i2c.master.p_write=0;
	// Flush queue length
	i2c.master.q_length=0;
	// Prepare data for transmit
	for(uint8_t i=length; i; i--) {
     6e4:	91 50       	subi	r25, 0x01	; 1
     6e6:	ee cf       	rjmp	.-36     	; 0x6c4 <I2C_TransmitTo+0x10>
		if(i2c.master.p_write >= I2C_M_LENGTH_TX_BUFFER) continue;
		// Store data into TX buffer
		i2c.master.tx_buff[i2c.master.p_write++] = *(p_data++);
	}
	// Lock I2C to work with our byte
	i2c._busy = 1;
     6e8:	81 e0       	ldi	r24, 0x01	; 1
     6ea:	80 93 e7 01 	sts	0x01E7, r24	; 0x8001e7 <i2c>
	// Set I2C mode to SLA+R mode
	i2c.transmit_type = I2C_TRANSMIT_TYPE_SAWP;
     6ee:	80 93 eb 01 	sts	0x01EB, r24	; 0x8001eb <i2c+0x4>
	// Setup M41T00S slave I2C address
	i2c.master.slave_addr = addr;
     6f2:	60 93 ed 01 	sts	0x01ED, r22	; 0x8001ed <i2c+0x6>
	// Preparing page address word by his length
	if(word_length == 2) {
     6f6:	22 30       	cpi	r18, 0x02	; 2
     6f8:	29 f4       	brne	.+10     	; 0x704 <I2C_TransmitTo+0x50>
		i2c.page.buff[0] = HI(word_addr);
     6fa:	10 93 16 02 	sts	0x0216, r17	; 0x800216 <i2c+0x2f>
		i2c.page.buff[1] = LO(word_addr);
     6fe:	00 93 17 02 	sts	0x0217, r16	; 0x800217 <i2c+0x30>
     702:	02 c0       	rjmp	.+4      	; 0x708 <I2C_TransmitTo+0x54>
	} else {
		i2c.page.buff[0] = LO(word_addr);
     704:	00 93 16 02 	sts	0x0216, r16	; 0x800216 <i2c+0x2f>
	}
	// Flush page word buffer pointer
	i2c.page.p_buff = 0;
     708:	10 92 14 02 	sts	0x0214, r1	; 0x800214 <i2c+0x2d>
	// Set page address word length
	i2c.page.q_length = word_length;
     70c:	20 93 15 02 	sts	0x0215, r18	; 0x800215 <i2c+0x2e>
	// Set asynchronous function state
	i2c.master.onSuccess = &DoNothing;
     710:	8c e1       	ldi	r24, 0x1C	; 28
     712:	92 e0       	ldi	r25, 0x02	; 2
     714:	90 93 11 02 	sts	0x0211, r25	; 0x800211 <i2c+0x2a>
     718:	80 93 10 02 	sts	0x0210, r24	; 0x800210 <i2c+0x29>
	i2c.master.onError = &DoNothing;
     71c:	90 93 13 02 	sts	0x0213, r25	; 0x800213 <i2c+0x2c>
     720:	80 93 12 02 	sts	0x0212, r24	; 0x800212 <i2c+0x2b>
	// Flush buffer pointer - nothing to transmit
	i2c.master.p_buff = 0;
     724:	10 92 ee 01 	sts	0x01EE, r1	; 0x8001ee <i2c+0x7>
	// Set RX queue length
	i2c.master.q_length = length;
     728:	40 93 f1 01 	sts	0x01F1, r20	; 0x8001f1 <i2c+0xa>
	// Start transmitter with START
	TWCR = 	1<<TWSTA|						// Set START condition
     72c:	85 ea       	ldi	r24, 0xA5	; 165
     72e:	80 93 bc 00 	sts	0x00BC, r24	; 0x8000bc <__TEXT_REGION_LENGTH__+0x7e00bc>
			0<<TWSTO|						// Not STOP
			1<<TWINT|						// Flush TWI interrupt flag
			I2C_SLAVE_MODE<<TWEA|			// Not ACK
			1<<TWEN|						// Enable TWI operation
			1<<TWIE;						// Enable TWI interrupt
}
     732:	1f 91       	pop	r17
     734:	0f 91       	pop	r16
     736:	08 95       	ret

00000738 <I2C_Read>:

uint8_t I2C_Read(void)
{
	// Flush RX lock flag
	i2c._rx_lock = 0;
     738:	10 92 e8 01 	sts	0x01E8, r1	; 0x8001e8 <i2c+0x1>
	// Overflow control
	if(i2c.master.p_read >= I2C_M_LENGTH_RX_BUFFER) return 0;
     73c:	e0 91 f0 01 	lds	r30, 0x01F0	; 0x8001f0 <i2c+0x9>
     740:	ea 30       	cpi	r30, 0x0A	; 10
     742:	48 f4       	brcc	.+18     	; 0x756 <I2C_Read+0x1e>
	// Return byte of RX buffer
	return i2c.master.rx_buff[i2c.master.p_read++];
     744:	81 e0       	ldi	r24, 0x01	; 1
     746:	8e 0f       	add	r24, r30
     748:	80 93 f0 01 	sts	0x01F0, r24	; 0x8001f0 <i2c+0x9>
     74c:	f0 e0       	ldi	r31, 0x00	; 0
     74e:	e9 51       	subi	r30, 0x19	; 25
     750:	fe 4f       	sbci	r31, 0xFE	; 254
     752:	87 8d       	ldd	r24, Z+31	; 0x1f
     754:	08 95       	ret
uint8_t I2C_Read(void)
{
	// Flush RX lock flag
	i2c._rx_lock = 0;
	// Overflow control
	if(i2c.master.p_read >= I2C_M_LENGTH_RX_BUFFER) return 0;
     756:	80 e0       	ldi	r24, 0x00	; 0
	// Return byte of RX buffer
	return i2c.master.rx_buff[i2c.master.p_read++];
}
     758:	08 95       	ret

0000075a <UART_SendDataFromFlash>:
	#else
	uint8_t		q_length=0;
	#endif

	// Disable UART UDRE Interrupt
	UART_TX_INTERRUPT_DISABLE();
     75a:	20 91 c1 00 	lds	r18, 0x00C1	; 0x8000c1 <__TEXT_REGION_LENGTH__+0x7e00c1>
     75e:	2f 7d       	andi	r18, 0xDF	; 223
     760:	20 93 c1 00 	sts	0x00C1, r18	; 0x8000c1 <__TEXT_REGION_LENGTH__+0x7e00c1>
	q_length = uart.tx.q_length;
     764:	70 91 1c 02 	lds	r23, 0x021C	; 0x80021c <uart+0x4>
	// Enable UART_UDRE Interrupt
	UART_TX_INTERRUPT_ENABLE();
     768:	20 91 c1 00 	lds	r18, 0x00C1	; 0x8000c1 <__TEXT_REGION_LENGTH__+0x7e00c1>
     76c:	20 62       	ori	r18, 0x20	; 32
     76e:	20 93 c1 00 	sts	0x00C1, r18	; 0x8000c1 <__TEXT_REGION_LENGTH__+0x7e00c1>

	if(data_length <= (UART_TX_BUFSIZE - q_length)) {
     772:	46 2f       	mov	r20, r22
     774:	50 e0       	ldi	r21, 0x00	; 0
     776:	24 e1       	ldi	r18, 0x14	; 20
     778:	30 e0       	ldi	r19, 0x00	; 0
     77a:	27 1b       	sub	r18, r23
     77c:	31 09       	sbc	r19, r1
     77e:	24 17       	cp	r18, r20
     780:	35 07       	cpc	r19, r21
     782:	24 f1       	brlt	.+72     	; 0x7cc <UART_SendDataFromFlash+0x72>
     784:	fc 01       	movw	r30, r24
		while(data_length--) {
     786:	61 50       	subi	r22, 0x01	; 1
     788:	08 f1       	brcs	.+66     	; 0x7cc <UART_SendDataFromFlash+0x72>
			// Load char from FLASH string into TX buffer with offset
			uart.tx.buff[uart.tx.p_write++] = pgm_read_byte(data++);
     78a:	a0 91 1b 02 	lds	r26, 0x021B	; 0x80021b <uart+0x3>
     78e:	91 e0       	ldi	r25, 0x01	; 1
     790:	9a 0f       	add	r25, r26
     792:	90 93 1b 02 	sts	0x021B, r25	; 0x80021b <uart+0x3>
     796:	84 91       	lpm	r24, Z
     798:	b0 e0       	ldi	r27, 0x00	; 0
     79a:	a8 5e       	subi	r26, 0xE8	; 232
     79c:	bd 4f       	sbci	r27, 0xFD	; 253
     79e:	15 96       	adiw	r26, 0x05	; 5
     7a0:	8c 93       	st	X, r24
			// Detect loop back in TX buffer offset
			if(uart.tx.p_write >= UART_TX_BUFSIZE) uart.tx.p_write=0;
     7a2:	94 31       	cpi	r25, 0x14	; 20
     7a4:	10 f0       	brcs	.+4      	; 0x7aa <UART_SendDataFromFlash+0x50>
     7a6:	10 92 1b 02 	sts	0x021B, r1	; 0x80021b <uart+0x3>
			UART_TX_INTERRUPT_DISABLE();
     7aa:	80 91 c1 00 	lds	r24, 0x00C1	; 0x8000c1 <__TEXT_REGION_LENGTH__+0x7e00c1>
     7ae:	8f 7d       	andi	r24, 0xDF	; 223
     7b0:	80 93 c1 00 	sts	0x00C1, r24	; 0x8000c1 <__TEXT_REGION_LENGTH__+0x7e00c1>
			// Increment TX queue counter length
			uart.tx.q_length++;
     7b4:	80 91 1c 02 	lds	r24, 0x021C	; 0x80021c <uart+0x4>
     7b8:	8f 5f       	subi	r24, 0xFF	; 255
     7ba:	80 93 1c 02 	sts	0x021C, r24	; 0x80021c <uart+0x4>
			UART_TX_INTERRUPT_ENABLE();
     7be:	80 91 c1 00 	lds	r24, 0x00C1	; 0x8000c1 <__TEXT_REGION_LENGTH__+0x7e00c1>
     7c2:	80 62       	ori	r24, 0x20	; 32
     7c4:	80 93 c1 00 	sts	0x00C1, r24	; 0x8000c1 <__TEXT_REGION_LENGTH__+0x7e00c1>
     7c8:	31 96       	adiw	r30, 0x01	; 1
     7ca:	dd cf       	rjmp	.-70     	; 0x786 <UART_SendDataFromFlash+0x2c>
     7cc:	08 95       	ret

000007ce <UART_UDRE_TX_Service>:
}

/* ISR Service for UDRE interrupt */
void UART_UDRE_TX_Service(void)
{
	if(uart.tx.q_length) {
     7ce:	80 91 1c 02 	lds	r24, 0x021C	; 0x80021c <uart+0x4>
     7d2:	88 23       	and	r24, r24
     7d4:	a1 f0       	breq	.+40     	; 0x7fe <UART_UDRE_TX_Service+0x30>
		// Copy char from TX buffer to UDR register
		UDR0 = uart.tx.buff[uart.tx.p_send++];
     7d6:	e0 91 1a 02 	lds	r30, 0x021A	; 0x80021a <uart+0x2>
     7da:	91 e0       	ldi	r25, 0x01	; 1
     7dc:	9e 0f       	add	r25, r30
     7de:	90 93 1a 02 	sts	0x021A, r25	; 0x80021a <uart+0x2>
     7e2:	f0 e0       	ldi	r31, 0x00	; 0
     7e4:	e8 5e       	subi	r30, 0xE8	; 232
     7e6:	fd 4f       	sbci	r31, 0xFD	; 253
     7e8:	25 81       	ldd	r18, Z+5	; 0x05
     7ea:	20 93 c6 00 	sts	0x00C6, r18	; 0x8000c6 <__TEXT_REGION_LENGTH__+0x7e00c6>
		// Detect loop back in TX sent offset
		if(uart.tx.p_send >= UART_TX_BUFSIZE) uart.tx.p_send=0;
     7ee:	94 31       	cpi	r25, 0x14	; 20
     7f0:	10 f0       	brcs	.+4      	; 0x7f6 <UART_UDRE_TX_Service+0x28>
     7f2:	10 92 1a 02 	sts	0x021A, r1	; 0x80021a <uart+0x2>
		// Decrement TX queue
		uart.tx.q_length--;
     7f6:	81 50       	subi	r24, 0x01	; 1
     7f8:	80 93 1c 02 	sts	0x021C, r24	; 0x80021c <uart+0x4>
     7fc:	08 95       	ret
	} else {
		UART_TX_INTERRUPT_DISABLE();
     7fe:	80 91 c1 00 	lds	r24, 0x00C1	; 0x8000c1 <__TEXT_REGION_LENGTH__+0x7e00c1>
     802:	8f 7d       	andi	r24, 0xDF	; 223
     804:	80 93 c1 00 	sts	0x00C1, r24	; 0x8000c1 <__TEXT_REGION_LENGTH__+0x7e00c1>
     808:	08 95       	ret

0000080a <UART_RX_Service>:

/* ISR Service for RX interrupt */
void UART_RX_Service(void)
{
	// Read UART data
	int8_t	data = UDR0;
     80a:	30 91 c6 00 	lds	r19, 0x00C6	; 0x8000c6 <__TEXT_REGION_LENGTH__+0x7e00c6>

	if(!uart.rx.data_length) {
     80e:	90 91 37 02 	lds	r25, 0x0237	; 0x800237 <uart+0x1f>
     812:	91 11       	cpse	r25, r1
     814:	02 c0       	rjmp	.+4      	; 0x81a <UART_RX_Service+0x10>
		switch(data) {
     816:	3d 30       	cpi	r19, 0x0D	; 13
     818:	01 f1       	breq	.+64     	; 0x85a <UART_RX_Service+0x50>

			default: break;
		}
	}
	// If buffer not full - processing
	if(uart.rx.q_length <= UART_RX_BUFSIZE) {
     81a:	80 91 36 02 	lds	r24, 0x0236	; 0x800236 <uart+0x1e>
     81e:	8b 30       	cpi	r24, 0x0B	; 11
     820:	08 f5       	brcc	.+66     	; 0x864 <UART_RX_Service+0x5a>
		// Echo data into UART
		#if (UART_RX_ECHO)
		UDR0 = data;
		#endif
		// Add data to RX buffer
		uart.rx.buff[uart.rx.p_read++] = data;
     822:	e0 91 35 02 	lds	r30, 0x0235	; 0x800235 <uart+0x1d>
     826:	21 e0       	ldi	r18, 0x01	; 1
     828:	2e 0f       	add	r18, r30
     82a:	20 93 35 02 	sts	0x0235, r18	; 0x800235 <uart+0x1d>
     82e:	f0 e0       	ldi	r31, 0x00	; 0
     830:	e8 5e       	subi	r30, 0xE8	; 232
     832:	fd 4f       	sbci	r31, 0xFD	; 253
     834:	30 a3       	std	Z+32, r19	; 0x20
		// If getting tail buffer, then point to start buffer
		if(uart.rx.p_read == UART_RX_BUFSIZE) uart.rx.p_read = 0;
     836:	2a 30       	cpi	r18, 0x0A	; 10
     838:	11 f4       	brne	.+4      	; 0x83e <UART_RX_Service+0x34>
     83a:	10 92 35 02 	sts	0x0235, r1	; 0x800235 <uart+0x1d>
		// Increment data counter
		uart.rx.q_length++;
     83e:	8f 5f       	subi	r24, 0xFF	; 255
     840:	80 93 36 02 	sts	0x0236, r24	; 0x800236 <uart+0x1e>
		// If we received all data bytes - call event function
		if(uart.rx.data_length && uart.rx.q_length == uart.rx.data_length) {
     844:	99 23       	and	r25, r25
     846:	e9 f0       	breq	.+58     	; 0x882 <UART_RX_Service+0x78>
     848:	98 13       	cpse	r25, r24
     84a:	1b c0       	rjmp	.+54     	; 0x882 <UART_RX_Service+0x78>
			// Disable RX interrupt
			UART_RX_INTERRUPT_DISABLE();
     84c:	80 91 c1 00 	lds	r24, 0x00C1	; 0x8000c1 <__TEXT_REGION_LENGTH__+0x7e00c1>
     850:	8f 76       	andi	r24, 0x6F	; 111
     852:	80 93 c1 00 	sts	0x00C1, r24	; 0x8000c1 <__TEXT_REGION_LENGTH__+0x7e00c1>
			// Reset buffer pointer
			uart.rx.p_read=0;
     856:	10 92 35 02 	sts	0x0235, r1	; 0x800235 <uart+0x1d>
			// Call event procedure
			(uart.rx.eventRxComplete)();
     85a:	e0 91 42 02 	lds	r30, 0x0242	; 0x800242 <uart+0x2a>
     85e:	f0 91 43 02 	lds	r31, 0x0243	; 0x800243 <uart+0x2b>
     862:	0e c0       	rjmp	.+28     	; 0x880 <UART_RX_Service+0x76>
		}
	} else {
		// Set error flag
		uart._error = 1;
     864:	81 e0       	ldi	r24, 0x01	; 1
     866:	80 93 18 02 	sts	0x0218, r24	; 0x800218 <uart>
		// Set error identificator
		uart.error = UART_ERROR_RX_BUFF_OVERFLOW;
     86a:	80 93 19 02 	sts	0x0219, r24	; 0x800219 <uart+0x1>
		// Disable RX interrupt
		UART_RX_INTERRUPT_DISABLE();
     86e:	80 91 c1 00 	lds	r24, 0x00C1	; 0x8000c1 <__TEXT_REGION_LENGTH__+0x7e00c1>
     872:	8f 76       	andi	r24, 0x6F	; 111
     874:	80 93 c1 00 	sts	0x00C1, r24	; 0x8000c1 <__TEXT_REGION_LENGTH__+0x7e00c1>
		// Call error handler
		(uart.rx.eventError)();
     878:	e0 91 44 02 	lds	r30, 0x0244	; 0x800244 <uart+0x2c>
     87c:	f0 91 45 02 	lds	r31, 0x0245	; 0x800245 <uart+0x2d>
     880:	09 94       	ijmp
     882:	08 95       	ret

00000884 <UART_Read>:
}

uint8_t UART_Read()
{
	// Check buffer overflow
	if(uart.rx.p_read > UART_RX_BUFSIZE) uart.rx.p_read=0;
     884:	80 91 35 02 	lds	r24, 0x0235	; 0x800235 <uart+0x1d>
     888:	8b 30       	cpi	r24, 0x0B	; 11
     88a:	10 f0       	brcs	.+4      	; 0x890 <UART_Read+0xc>
     88c:	10 92 35 02 	sts	0x0235, r1	; 0x800235 <uart+0x1d>
	// Read buffer value
	return uart.rx.buff[uart.rx.p_read++];
     890:	e0 91 35 02 	lds	r30, 0x0235	; 0x800235 <uart+0x1d>
     894:	81 e0       	ldi	r24, 0x01	; 1
     896:	8e 0f       	add	r24, r30
     898:	80 93 35 02 	sts	0x0235, r24	; 0x800235 <uart+0x1d>
     89c:	f0 e0       	ldi	r31, 0x00	; 0
     89e:	e8 5e       	subi	r30, 0xE8	; 232
     8a0:	fd 4f       	sbci	r31, 0xFD	; 253
}
     8a2:	80 a1       	ldd	r24, Z+32	; 0x20
     8a4:	08 95       	ret

000008a6 <UART_DefferedReadData>:
#else
void UART_DefferedReadData(uint8_t length, UART_F complete_handler, UART_F error_handler)
#endif
{
	// Reset buffer pointer
	uart.rx.p_read=0;
     8a6:	e8 e1       	ldi	r30, 0x18	; 24
     8a8:	f2 e0       	ldi	r31, 0x02	; 2
     8aa:	15 8e       	std	Z+29, r1	; 0x1d
	// Reset queue length data
	uart.rx.q_length=0;
     8ac:	16 8e       	std	Z+30, r1	; 0x1e
	// Set data length
	uart.rx.data_length = length;
     8ae:	87 8f       	std	Z+31, r24	; 0x1f
	// Set event procedure
	uart.rx.eventRxComplete = complete_handler;
     8b0:	73 a7       	std	Z+43, r23	; 0x2b
     8b2:	62 a7       	std	Z+42, r22	; 0x2a
	// Set event ERROR
	uart.rx.eventError = error_handler;
     8b4:	55 a7       	std	Z+45, r21	; 0x2d
     8b6:	44 a7       	std	Z+44, r20	; 0x2c
	// Enable RX interrupt
	UART_RX_INTERRUPT_ENABLE();
     8b8:	e1 ec       	ldi	r30, 0xC1	; 193
     8ba:	f0 e0       	ldi	r31, 0x00	; 0
     8bc:	80 81       	ld	r24, Z
     8be:	80 69       	ori	r24, 0x90	; 144
     8c0:	80 83       	st	Z, r24
     8c2:	08 95       	ret

000008c4 <FSM_BUTTON_Init>:
/* FUNCTIONS                                                            */
/************************************************************************/
void FSM_BUTTON_Init(void)
{
	// Set default state for FSM
	FSM_state = BUTTON_STATE_UP;
     8c4:	10 92 a1 01 	sts	0x01A1, r1	; 0x8001a1 <FSM_state>
	// Flush current and last events
	button.event = button.last_event = BUTTON_EVENT_NOT_PRESSED;
     8c8:	ee e9       	ldi	r30, 0x9E	; 158
     8ca:	f1 e0       	ldi	r31, 0x01	; 1
     8cc:	11 82       	std	Z+1, r1	; 0x01
     8ce:	10 82       	st	Z, r1
     8d0:	08 95       	ret

000008d2 <FSM_BUTTON_Process>:
}

void FSM_BUTTON_Process(void)
{
     8d2:	cf 93       	push	r28
	switch (FSM_state) {
     8d4:	c0 91 a1 01 	lds	r28, 0x01A1	; 0x8001a1 <FSM_state>
     8d8:	c1 30       	cpi	r28, 0x01	; 1
     8da:	d1 f0       	breq	.+52     	; 0x910 <__stack+0x11>
     8dc:	18 f0       	brcs	.+6      	; 0x8e4 <FSM_BUTTON_Process+0x12>
     8de:	c2 30       	cpi	r28, 0x02	; 2
     8e0:	91 f1       	breq	.+100    	; 0x946 <__stack+0x47>
     8e2:	37 c0       	rjmp	.+110    	; 0x952 <__stack+0x53>

		case BUTTON_STATE_UP: {
			// If button pressed
			if(BTN_PRESSED) {
     8e4:	32 99       	sbic	0x06, 2	; 6
     8e6:	06 c0       	rjmp	.+12     	; 0x8f4 <FSM_BUTTON_Process+0x22>
				// Set current state
				button.event = BUTTON_EVENT_NOT_PRESSED;
     8e8:	10 92 9e 01 	sts	0x019E, r1	; 0x80019e <__data_end>
				// Flush long press counter
				button.lp_counter=0;
     8ec:	10 92 a0 01 	sts	0x01A0, r1	; 0x8001a0 <__data_end+0x2>
				// Set next FSM state
				FSM_state = BUTTON_STATE_DN;
     8f0:	81 e0       	ldi	r24, 0x01	; 1
     8f2:	20 c0       	rjmp	.+64     	; 0x934 <__stack+0x35>
				// Reset timer for next button scan
				ResetTimer(TIMER_BUTTON);
				} else if(button.event != BUTTON_EVENT_NOT_PRESSED) {
     8f4:	80 91 9e 01 	lds	r24, 0x019E	; 0x80019e <__data_end>
     8f8:	88 23       	and	r24, r24
     8fa:	59 f1       	breq	.+86     	; 0x952 <__stack+0x53>
				// Store last button event
				button.last_event = button.event;
     8fc:	80 93 9f 01 	sts	0x019F, r24	; 0x80019f <__data_end+0x1>
				// If we have event from button - send message
				SendMessageWParam(MSG_BTN_KEY_PRESSED, &button.last_event);
     900:	6f e9       	ldi	r22, 0x9F	; 159
     902:	71 e0       	ldi	r23, 0x01	; 1
     904:	87 e0       	ldi	r24, 0x07	; 7
     906:	0e 94 bf 0d 	call	0x1b7e	; 0x1b7e <SendMessageWParam>
				// Flush current event
				button.event = BUTTON_EVENT_NOT_PRESSED;
     90a:	10 92 9e 01 	sts	0x019E, r1	; 0x80019e <__data_end>
     90e:	21 c0       	rjmp	.+66     	; 0x952 <__stack+0x53>
			return;
		}

		case BUTTON_STATE_DN: {
			// Debounce delay check
			if(GetTimer(TIMER_BUTTON) >= BUTTON_DEBOUNCE_DELAY) {
     910:	87 e0       	ldi	r24, 0x07	; 7
     912:	0e 94 6c 0e 	call	0x1cd8	; 0x1cd8 <GetTimer>
     916:	0a 97       	sbiw	r24, 0x0a	; 10
     918:	e0 f0       	brcs	.+56     	; 0x952 <__stack+0x53>
				// If key also pressed - processing long press
				if(BTN_PRESSED) {
     91a:	32 99       	sbic	0x06, 2	; 6
     91c:	0e c0       	rjmp	.+28     	; 0x93a <__stack+0x3b>
					// Set button event to SHORT PRESS
					button.event = BUTTON_EVENT_SHORT_PRESS;
     91e:	c0 93 9e 01 	sts	0x019E, r28	; 0x80019e <__data_end>
					// Long press counter check
					if(button.lp_counter++ >= BUTTON_LONG_PRESS_COUNT) {
     922:	80 91 a0 01 	lds	r24, 0x01A0	; 0x8001a0 <__data_end+0x2>
     926:	91 e0       	ldi	r25, 0x01	; 1
     928:	98 0f       	add	r25, r24
     92a:	90 93 a0 01 	sts	0x01A0, r25	; 0x8001a0 <__data_end+0x2>
     92e:	8c 33       	cpi	r24, 0x3C	; 60
     930:	30 f0       	brcs	.+12     	; 0x93e <__stack+0x3f>
						// Set next FSM state
						FSM_state = BUTTON_STATE_AL;
     932:	82 e0       	ldi	r24, 0x02	; 2
     934:	80 93 a1 01 	sts	0x01A1, r24	; 0x8001a1 <FSM_state>
     938:	02 c0       	rjmp	.+4      	; 0x93e <__stack+0x3f>
					}
					} else {
					// Set next FSM state
					FSM_state = BUTTON_STATE_UP;
     93a:	10 92 a1 01 	sts	0x01A1, r1	; 0x8001a1 <FSM_state>
				}
				// Flush timer for next debounce cycle
				ResetTimer(TIMER_BUTTON);
     93e:	87 e0       	ldi	r24, 0x07	; 7
			return;
		}

		default: break;
	}
}
     940:	cf 91       	pop	r28
					} else {
					// Set next FSM state
					FSM_state = BUTTON_STATE_UP;
				}
				// Flush timer for next debounce cycle
				ResetTimer(TIMER_BUTTON);
     942:	0c 94 75 0e 	jmp	0x1cea	; 0x1cea <ResetTimer>
			}
			return;
		}

		case BUTTON_STATE_AL: {
			if(!BTN_PRESSED) {
     946:	32 9b       	sbis	0x06, 2	; 6
     948:	04 c0       	rjmp	.+8      	; 0x952 <__stack+0x53>
				// Set current button event
				button.event = BUTTON_EVENT_LONG_PRESS;
     94a:	c0 93 9e 01 	sts	0x019E, r28	; 0x80019e <__data_end>
				// Set next FSM state
				FSM_state = BUTTON_STATE_UP;
     94e:	10 92 a1 01 	sts	0x01A1, r1	; 0x8001a1 <FSM_state>
			return;
		}

		default: break;
	}
}
     952:	cf 91       	pop	r28
     954:	08 95       	ret

00000956 <FSM_DHT_Init>:
/* FUNCTIONS                                                            */
/************************************************************************/
void FSM_DHT_Init(void)
{
	// Initialize error var
	dht._failed = 0;
     956:	ed e9       	ldi	r30, 0x9D	; 157
     958:	f3 e0       	ldi	r31, 0x03	; 3
     95a:	10 82       	st	Z, r1
	dht.error = DHT_ERROR_NO_ERROR;
     95c:	11 82       	std	Z+1, r1	; 0x01
	// Set next FSM state
	FSM_state = FSM_DHT_STATE_IDLE;
     95e:	10 92 a7 01 	sts	0x01A7, r1	; 0x8001a7 <FSM_state>
	// Flush FSM timer
	ResetTimer(TIMER_DHT);
     962:	84 e0       	ldi	r24, 0x04	; 4
     964:	0c 94 75 0e 	jmp	0x1cea	; 0x1cea <ResetTimer>

00000968 <FSM_DHT_Process>:
}


void FSM_DHT_Process(void)
{
	switch(FSM_state) {
     968:	80 91 a7 01 	lds	r24, 0x01A7	; 0x8001a7 <FSM_state>
     96c:	81 30       	cpi	r24, 0x01	; 1
     96e:	b1 f1       	breq	.+108    	; 0x9dc <FSM_DHT_Process+0x74>
     970:	18 f1       	brcs	.+70     	; 0x9b8 <FSM_DHT_Process+0x50>
     972:	83 30       	cpi	r24, 0x03	; 3
     974:	09 f0       	breq	.+2      	; 0x978 <FSM_DHT_Process+0x10>
     976:	94 c0       	rjmp	.+296    	; 0xaa0 <FSM_DHT_Process+0x138>

			uint8_t *p_data = (void *)&dht.data;
			uint8_t *p_buff = rx_buff;

			for(uint8_t i=5; i; i--) {
				*(p_data++) = *(p_buff++);
     978:	80 91 a2 01 	lds	r24, 0x01A2	; 0x8001a2 <rx_buff>
     97c:	80 93 9f 03 	sts	0x039F, r24	; 0x80039f <dht+0x2>
     980:	80 91 a3 01 	lds	r24, 0x01A3	; 0x8001a3 <rx_buff+0x1>
     984:	80 93 a0 03 	sts	0x03A0, r24	; 0x8003a0 <dht+0x3>
     988:	80 91 a4 01 	lds	r24, 0x01A4	; 0x8001a4 <rx_buff+0x2>
     98c:	80 93 a1 03 	sts	0x03A1, r24	; 0x8003a1 <dht+0x4>
     990:	80 91 a5 01 	lds	r24, 0x01A5	; 0x8001a5 <rx_buff+0x3>
     994:	80 93 a2 03 	sts	0x03A2, r24	; 0x8003a2 <dht+0x5>
     998:	80 91 a6 01 	lds	r24, 0x01A6	; 0x8001a6 <rx_buff+0x4>
     99c:	80 93 a3 03 	sts	0x03A3, r24	; 0x8003a3 <dht+0x6>
			}

			// Calculating DHT data values
			dht.temperature.sign = 0;
     9a0:	10 92 a4 03 	sts	0x03A4, r1	; 0x8003a4 <dht+0x7>
			if(dht.data.t & 0x8000) {
     9a4:	80 91 a0 03 	lds	r24, 0x03A0	; 0x8003a0 <dht+0x3>
     9a8:	90 91 a1 03 	lds	r25, 0x03A1	; 0x8003a1 <dht+0x4>
     9ac:	97 ff       	sbrs	r25, 7
     9ae:	62 c0       	rjmp	.+196    	; 0xa74 <FSM_DHT_Process+0x10c>
				dht.temperature.sign = 1;
     9b0:	21 e0       	ldi	r18, 0x01	; 1
     9b2:	20 93 a4 03 	sts	0x03A4, r18	; 0x8003a4 <dht+0x7>
     9b6:	5e c0       	rjmp	.+188    	; 0xa74 <FSM_DHT_Process+0x10c>
{
	switch(FSM_state) {

		case FSM_DHT_STATE_IDLE: {
			// If no error before and time to refresh data
			if(!dht._failed && GetTimer(TIMER_DHT) > DHT_REFRESH_PERIOD) {
     9b8:	80 91 9d 03 	lds	r24, 0x039D	; 0x80039d <dht>
     9bc:	81 11       	cpse	r24, r1
     9be:	70 c0       	rjmp	.+224    	; 0xaa0 <FSM_DHT_Process+0x138>
     9c0:	84 e0       	ldi	r24, 0x04	; 4
     9c2:	0e 94 6c 0e 	call	0x1cd8	; 0x1cd8 <GetTimer>
     9c6:	89 3e       	cpi	r24, 0xE9	; 233
     9c8:	93 40       	sbci	r25, 0x03	; 3
     9ca:	08 f4       	brcc	.+2      	; 0x9ce <FSM_DHT_Process+0x66>
     9cc:	69 c0       	rjmp	.+210    	; 0xaa0 <FSM_DHT_Process+0x138>
				// Set port pin in OUT mode
				DHT_DDR |= DHT_PIN_MASK;
     9ce:	56 9a       	sbi	0x0a, 6	; 10
				// Set port pin in low level
				DHT_PORT &= ~DHT_PIN_MASK;
     9d0:	5e 98       	cbi	0x0b, 6	; 11
				// Flush FSM timer
				ResetTimer(TIMER_DHT);
     9d2:	84 e0       	ldi	r24, 0x04	; 4
     9d4:	0e 94 75 0e 	call	0x1cea	; 0x1cea <ResetTimer>
				// Set next FSM state
				FSM_state = FSM_DHT_STATE_GET_DATA;
     9d8:	81 e0       	ldi	r24, 0x01	; 1
     9da:	49 c0       	rjmp	.+146    	; 0xa6e <FSM_DHT_Process+0x106>
			return;
		}

		case FSM_DHT_STATE_GET_DATA: {

			if(GetTimer(TIMER_DHT) > 5) {
     9dc:	84 e0       	ldi	r24, 0x04	; 4
     9de:	0e 94 6c 0e 	call	0x1cd8	; 0x1cd8 <GetTimer>
     9e2:	06 97       	sbiw	r24, 0x06	; 6
     9e4:	08 f4       	brcc	.+2      	; 0x9e8 <FSM_DHT_Process+0x80>
     9e6:	5c c0       	rjmp	.+184    	; 0xaa0 <FSM_DHT_Process+0x138>

				ATOMIC_BLOCK(ATOMIC_RESTORESTATE) {
     9e8:	2f b7       	in	r18, 0x3f	; 63
    return 1;
}

static __inline__ uint8_t __iCliRetVal(void)
{
    cli();
     9ea:	f8 94       	cli
					// Set port pin in HIGH level
					DHT_PORT |= DHT_PIN_MASK;
     9ec:	5e 9a       	sbi	0x0b, 6	; 11
	#else
		//round up by default
		__ticks_dc = (uint32_t)(ceil(fabs(__tmp)));
	#endif

	__builtin_avr_delay_cycles(__ticks_dc);
     9ee:	80 e5       	ldi	r24, 0x50	; 80
     9f0:	8a 95       	dec	r24
     9f2:	f1 f7       	brne	.-4      	; 0x9f0 <FSM_DHT_Process+0x88>
					// Technology timeout ~20uS
					_delay_us(30);
					// Set port pin in IN mode
					DHT_DDR &= ~DHT_PIN_MASK;
     9f4:	56 98       	cbi	0x0a, 6	; 10
					// Flush timer counter reg
					MEASURING_TMR_CNT = 0;
     9f6:	16 bc       	out	0x26, r1	; 38
					// Waiting while level changed from LOW to HIGH
					while(!DHT_PIN_STATE) {
     9f8:	4e 99       	sbic	0x09, 6	; 9
     9fa:	07 c0       	rjmp	.+14     	; 0xa0a <FSM_DHT_Process+0xa2>
						// Timeout control
						if(MEASURING_TMR_CNT > DHT_TIMESLOT_TIMEOUT) {
     9fc:	86 b5       	in	r24, 0x26	; 38
     9fe:	85 36       	cpi	r24, 0x65	; 101
     a00:	d8 f3       	brcs	.-10     	; 0x9f8 <FSM_DHT_Process+0x90>
							// Set error handler
							dht._failed = 1;
     a02:	81 e0       	ldi	r24, 0x01	; 1
     a04:	80 93 9d 03 	sts	0x039D, r24	; 0x80039d <dht>
     a08:	1e c0       	rjmp	.+60     	; 0xa46 <FSM_DHT_Process+0xde>
							return;
						}
					}

					// Flush timer counter reg
					MEASURING_TMR_CNT = 0;
     a0a:	16 bc       	out	0x26, r1	; 38
					// Waiting while level changed from LOW to HIGH
					while(DHT_PIN_STATE) {
     a0c:	4e 9b       	sbis	0x09, 6	; 9
     a0e:	04 c0       	rjmp	.+8      	; 0xa18 <FSM_DHT_Process+0xb0>
						// Timeout control
						if(MEASURING_TMR_CNT > DHT_TIMESLOT_TIMEOUT) {
     a10:	86 b5       	in	r24, 0x26	; 38
     a12:	85 36       	cpi	r24, 0x65	; 101
     a14:	d8 f3       	brcs	.-10     	; 0xa0c <FSM_DHT_Process+0xa4>
     a16:	13 c0       	rjmp	.+38     	; 0xa3e <FSM_DHT_Process+0xd6>
     a18:	e7 ea       	ldi	r30, 0xA7	; 167
     a1a:	f1 e0       	ldi	r31, 0x01	; 1
     a1c:	1a c0       	rjmp	.+52     	; 0xa52 <FSM_DHT_Process+0xea>
									FSM_state = FSM_DHT_STATE_IDLE;
									return;
								}
							}
							// Flush timer counter reg
							MEASURING_TMR_CNT = 0;
     a1e:	16 bc       	out	0x26, r1	; 38
							// Waiting while level changed from HIGH to LOW
							while(DHT_PIN_STATE) {
     a20:	4e 99       	sbic	0x09, 6	; 9
     a22:	1a c0       	rjmp	.+52     	; 0xa58 <FSM_DHT_Process+0xf0>
									FSM_state = FSM_DHT_STATE_IDLE;
									return;
								}
							}
							// Shift data bit in receive byte
							tmp <<= 1;
     a24:	88 0f       	add	r24, r24
							// If slot has time over 50uS - is 1, else - 0
							if(MEASURING_TMR_CNT > 50) {
     a26:	36 b5       	in	r19, 0x26	; 38
     a28:	33 33       	cpi	r19, 0x33	; 51
     a2a:	08 f0       	brcs	.+2      	; 0xa2e <FSM_DHT_Process+0xc6>
								tmp |= 0x1;
     a2c:	81 60       	ori	r24, 0x01	; 1
     a2e:	91 50       	subi	r25, 0x01	; 1
					// Receiving 5 bytes from DHT
					//uint8_t		*p_buff = (void *)&dht.data;
					for(int8_t i=4; i>=0; i--) {
						// Receiving procedure bit by bit
						uint8_t	tmp=0;
						for(uint8_t b=8; b>0; b--) {
     a30:	b9 f0       	breq	.+46     	; 0xa60 <FSM_DHT_Process+0xf8>
							// Flush timer counter reg
							MEASURING_TMR_CNT = 0;
     a32:	16 bc       	out	0x26, r1	; 38
							// Waiting while level changed from LOW to HIGH
							while(!DHT_PIN_STATE) {
     a34:	4e 99       	sbic	0x09, 6	; 9
     a36:	f3 cf       	rjmp	.-26     	; 0xa1e <FSM_DHT_Process+0xb6>
								// Timeout control
								if(MEASURING_TMR_CNT > DHT_TIMESLOT_TIMEOUT) {
     a38:	36 b5       	in	r19, 0x26	; 38
     a3a:	35 36       	cpi	r19, 0x65	; 101
     a3c:	d8 f3       	brcs	.-10     	; 0xa34 <FSM_DHT_Process+0xcc>
							// Waiting while level changed from HIGH to LOW
							while(DHT_PIN_STATE) {
								// Timeout control
								if(MEASURING_TMR_CNT > DHT_TIMESLOT_TIMEOUT) {
									// Set error handler
									dht._failed = 1;
     a3e:	81 e0       	ldi	r24, 0x01	; 1
     a40:	80 93 9d 03 	sts	0x039D, r24	; 0x80039d <dht>
									dht.error = DHT_ERROR_TIMEOUT;
     a44:	82 e0       	ldi	r24, 0x02	; 2
     a46:	80 93 9e 03 	sts	0x039E, r24	; 0x80039e <dht+0x1>
									// Set next FSM state
									FSM_state = FSM_DHT_STATE_IDLE;
     a4a:	10 92 a7 01 	sts	0x01A7, r1	; 0x8001a7 <FSM_state>
    (void)__s;
}

static __inline__ void __iRestore(const  uint8_t *__s)
{
    SREG = *__s;
     a4e:	2f bf       	out	0x3f, r18	; 63
    __asm__ volatile ("" ::: "memory");
     a50:	08 95       	ret
	ResetTimer(TIMER_DHT);
}


void FSM_DHT_Process(void)
{
     a52:	98 e0       	ldi	r25, 0x08	; 8
     a54:	80 e0       	ldi	r24, 0x00	; 0
     a56:	ed cf       	rjmp	.-38     	; 0xa32 <FSM_DHT_Process+0xca>
							// Flush timer counter reg
							MEASURING_TMR_CNT = 0;
							// Waiting while level changed from HIGH to LOW
							while(DHT_PIN_STATE) {
								// Timeout control
								if(MEASURING_TMR_CNT > DHT_TIMESLOT_TIMEOUT) {
     a58:	36 b5       	in	r19, 0x26	; 38
     a5a:	35 36       	cpi	r19, 0x65	; 101
     a5c:	08 f3       	brcs	.-62     	; 0xa20 <FSM_DHT_Process+0xb8>
     a5e:	ef cf       	rjmp	.-34     	; 0xa3e <FSM_DHT_Process+0xd6>
							if(MEASURING_TMR_CNT > 50) {
								tmp |= 0x1;
							}
						}
						// Store received byte to the buffer
						rx_buff[i] = tmp;
     a60:	82 93       	st	-Z, r24
						}
					}

					// Receiving 5 bytes from DHT
					//uint8_t		*p_buff = (void *)&dht.data;
					for(int8_t i=4; i>=0; i--) {
     a62:	81 e0       	ldi	r24, 0x01	; 1
     a64:	e2 3a       	cpi	r30, 0xA2	; 162
     a66:	f8 07       	cpc	r31, r24
     a68:	a1 f7       	brne	.-24     	; 0xa52 <FSM_DHT_Process+0xea>
    (void)__s;
}

static __inline__ void __iRestore(const  uint8_t *__s)
{
    SREG = *__s;
     a6a:	2f bf       	out	0x3f, r18	; 63
						}
						// Store received byte to the buffer
						rx_buff[i] = tmp;
					}
				}
				FSM_state = FSM_DHT_STATE_PROCESSING;
     a6c:	83 e0       	ldi	r24, 0x03	; 3
     a6e:	80 93 a7 01 	sts	0x01A7, r24	; 0x8001a7 <FSM_state>
     a72:	08 95       	ret
			// Calculating DHT data values
			dht.temperature.sign = 0;
			if(dht.data.t & 0x8000) {
				dht.temperature.sign = 1;
			}
			dht.temperature.value = dht.data.t / 10;
     a74:	2a e0       	ldi	r18, 0x0A	; 10
     a76:	30 e0       	ldi	r19, 0x00	; 0
     a78:	b9 01       	movw	r22, r18
     a7a:	0e 94 93 10 	call	0x2126	; 0x2126 <__udivmodhi4>
     a7e:	60 93 a5 03 	sts	0x03A5, r22	; 0x8003a5 <dht+0x8>
			dht.temperature.mantissa = dht.data.t % 10;
     a82:	80 93 a6 03 	sts	0x03A6, r24	; 0x8003a6 <dht+0x9>
			dht.humidity.value = dht.data.h / 10;
     a86:	80 91 a2 03 	lds	r24, 0x03A2	; 0x8003a2 <dht+0x5>
     a8a:	90 91 a3 03 	lds	r25, 0x03A3	; 0x8003a3 <dht+0x6>
     a8e:	b9 01       	movw	r22, r18
     a90:	0e 94 93 10 	call	0x2126	; 0x2126 <__udivmodhi4>
     a94:	60 93 a7 03 	sts	0x03A7, r22	; 0x8003a7 <dht+0xa>
			dht.humidity.mantissa = dht.data.h % 10;
     a98:	80 93 a8 03 	sts	0x03A8, r24	; 0x8003a8 <dht+0xb>
			// Set next FSM state
			FSM_state = FSM_DHT_STATE_IDLE;
     a9c:	10 92 a7 01 	sts	0x01A7, r1	; 0x8001a7 <FSM_state>
     aa0:	08 95       	ret

00000aa2 <FSM_ENC_Init>:
/* FUNCTIONS                                                            */
/************************************************************************/
void FSM_ENC_Init(void)
{
	// Set default FSM state
	FSM_state = FSM_ENC_STATE_IDLE;
     aa2:	10 92 ab 01 	sts	0x01AB, r1	; 0x8001ab <FSM_state>
	// Flush FSM timer
	ResetTimer(TIMER_ENC);
     aa6:	86 e0       	ldi	r24, 0x06	; 6
     aa8:	0c 94 75 0e 	jmp	0x1cea	; 0x1cea <ResetTimer>

00000aac <FSM_ENC_Process>:
}

void FSM_ENC_Process(void)
{
	switch(FSM_state) {
     aac:	80 91 ab 01 	lds	r24, 0x01AB	; 0x8001ab <FSM_state>
     ab0:	81 30       	cpi	r24, 0x01	; 1
     ab2:	89 f0       	breq	.+34     	; 0xad6 <FSM_ENC_Process+0x2a>
     ab4:	20 f0       	brcs	.+8      	; 0xabe <FSM_ENC_Process+0x12>
     ab6:	82 30       	cpi	r24, 0x02	; 2
     ab8:	09 f4       	brne	.+2      	; 0xabc <FSM_ENC_Process+0x10>
     aba:	41 c0       	rjmp	.+130    	; 0xb3e <FSM_ENC_Process+0x92>
     abc:	08 95       	ret

		case FSM_ENC_STATE_IDLE: {
			if(GetTimer(TIMER_ENC) >= 1) {
     abe:	86 e0       	ldi	r24, 0x06	; 6
     ac0:	0e 94 6c 0e 	call	0x1cd8	; 0x1cd8 <GetTimer>
     ac4:	89 2b       	or	r24, r25
     ac6:	09 f4       	brne	.+2      	; 0xaca <FSM_ENC_Process+0x1e>
     ac8:	47 c0       	rjmp	.+142    	; 0xb58 <FSM_ENC_Process+0xac>
				// Set next FSM state
				FSM_state = FSM_ENC_STATE_SCAN;
     aca:	81 e0       	ldi	r24, 0x01	; 1
     acc:	80 93 ab 01 	sts	0x01AB, r24	; 0x8001ab <FSM_state>
				// Flush FSM timer
				ResetTimer(TIMER_ENC);
     ad0:	86 e0       	ldi	r24, 0x06	; 6
     ad2:	0c 94 75 0e 	jmp	0x1cea	; 0x1cea <ResetTimer>
			return;
		}

		case FSM_ENC_STATE_SCAN: {
			// Getting current encoder pin state
			uint8_t curr_state = ENC_STATE;
     ad6:	86 b1       	in	r24, 0x06	; 6
     ad8:	83 70       	andi	r24, 0x03	; 3
			// Processing state
			switch(encoder.prev_state) {
     ada:	20 91 a8 01 	lds	r18, 0x01A8	; 0x8001a8 <encoder>
     ade:	90 91 a9 01 	lds	r25, 0x01A9	; 0x8001a9 <encoder+0x1>
     ae2:	21 30       	cpi	r18, 0x01	; 1
     ae4:	99 f0       	breq	.+38     	; 0xb0c <FSM_ENC_Process+0x60>
     ae6:	1c f4       	brge	.+6      	; 0xaee <FSM_ENC_Process+0x42>
     ae8:	22 23       	and	r18, r18
     aea:	31 f0       	breq	.+12     	; 0xaf8 <FSM_ENC_Process+0x4c>
     aec:	1d c0       	rjmp	.+58     	; 0xb28 <FSM_ENC_Process+0x7c>
     aee:	22 30       	cpi	r18, 0x02	; 2
     af0:	91 f0       	breq	.+36     	; 0xb16 <FSM_ENC_Process+0x6a>
     af2:	23 30       	cpi	r18, 0x03	; 3
     af4:	a9 f0       	breq	.+42     	; 0xb20 <FSM_ENC_Process+0x74>
     af6:	18 c0       	rjmp	.+48     	; 0xb28 <FSM_ENC_Process+0x7c>
				case 0: {
					if(curr_state == 2) encoder.value--;
     af8:	82 30       	cpi	r24, 0x02	; 2
     afa:	11 f4       	brne	.+4      	; 0xb00 <FSM_ENC_Process+0x54>
     afc:	91 50       	subi	r25, 0x01	; 1
     afe:	03 c0       	rjmp	.+6      	; 0xb06 <FSM_ENC_Process+0x5a>
					if(curr_state == 1) encoder.value++;
     b00:	81 30       	cpi	r24, 0x01	; 1
     b02:	91 f4       	brne	.+36     	; 0xb28 <FSM_ENC_Process+0x7c>
     b04:	9f 5f       	subi	r25, 0xFF	; 255
     b06:	90 93 a9 01 	sts	0x01A9, r25	; 0x8001a9 <encoder+0x1>
     b0a:	0e c0       	rjmp	.+28     	; 0xb28 <FSM_ENC_Process+0x7c>
					break;
				}

				case 1: {
					if(curr_state == 0) encoder.value--;
     b0c:	88 23       	and	r24, r24
     b0e:	b1 f3       	breq	.-20     	; 0xafc <FSM_ENC_Process+0x50>
					if(curr_state == 3) encoder.value++;
     b10:	83 30       	cpi	r24, 0x03	; 3
     b12:	c1 f3       	breq	.-16     	; 0xb04 <FSM_ENC_Process+0x58>
     b14:	09 c0       	rjmp	.+18     	; 0xb28 <FSM_ENC_Process+0x7c>
					break;
				}


				case 2: {
					if(curr_state == 3) encoder.value--;
     b16:	83 30       	cpi	r24, 0x03	; 3
     b18:	89 f3       	breq	.-30     	; 0xafc <FSM_ENC_Process+0x50>
					if(curr_state == 0) encoder.value++;
     b1a:	88 23       	and	r24, r24
     b1c:	99 f3       	breq	.-26     	; 0xb04 <FSM_ENC_Process+0x58>
     b1e:	04 c0       	rjmp	.+8      	; 0xb28 <FSM_ENC_Process+0x7c>
					break;
				}

				case 3: {
					if(curr_state == 1) encoder.value--;
     b20:	81 30       	cpi	r24, 0x01	; 1
     b22:	61 f3       	breq	.-40     	; 0xafc <FSM_ENC_Process+0x50>
					if(curr_state == 2) encoder.value++;
     b24:	82 30       	cpi	r24, 0x02	; 2
     b26:	71 f3       	breq	.-36     	; 0xb04 <FSM_ENC_Process+0x58>
					break;
				}
			}
			// Save last state of encoder pin
			encoder.prev_state = curr_state;
     b28:	80 93 a8 01 	sts	0x01A8, r24	; 0x8001a8 <encoder>
			// If counter not null
			if(encoder.value > 3 || encoder.value < -3) {
     b2c:	80 91 a9 01 	lds	r24, 0x01A9	; 0x8001a9 <encoder+0x1>
     b30:	8d 5f       	subi	r24, 0xFD	; 253
     b32:	87 30       	cpi	r24, 0x07	; 7
     b34:	78 f0       	brcs	.+30     	; 0xb54 <FSM_ENC_Process+0xa8>
				// Set next FSM state
				FSM_state = FSM_ENC_STATE_PROCESSING;
     b36:	82 e0       	ldi	r24, 0x02	; 2
     b38:	80 93 ab 01 	sts	0x01AB, r24	; 0x8001ab <FSM_state>
				return;
     b3c:	08 95       	ret
			return;
		}

		case FSM_ENC_STATE_PROCESSING: {
			// Store last rotate value
			encoder.last_value = encoder.value;
     b3e:	80 91 a9 01 	lds	r24, 0x01A9	; 0x8001a9 <encoder+0x1>
     b42:	80 93 aa 01 	sts	0x01AA, r24	; 0x8001aa <encoder+0x2>
			// Flush encoder counter
			encoder.value = 0;
     b46:	10 92 a9 01 	sts	0x01A9, r1	; 0x8001a9 <encoder+0x1>
			// Send message with encoder rotate angel
			SendMessageWParam(MSG_ENC_ROTATE, &encoder.last_value);
     b4a:	6a ea       	ldi	r22, 0xAA	; 170
     b4c:	71 e0       	ldi	r23, 0x01	; 1
     b4e:	86 e0       	ldi	r24, 0x06	; 6
     b50:	0e 94 bf 0d 	call	0x1b7e	; 0x1b7e <SendMessageWParam>
			// Set next FSM state
			FSM_state = FSM_ENC_STATE_IDLE;
     b54:	10 92 ab 01 	sts	0x01AB, r1	; 0x8001ab <FSM_state>
     b58:	08 95       	ret

00000b5a <FSM_LCD_Init>:
#endif

void FSM_LCD_Init(void)
{
	// Set next FSM state
	FSM_state = FSM_LCD_STATE_LCD_INIT;
     b5a:	81 e0       	ldi	r24, 0x01	; 1
     b5c:	80 93 b0 01 	sts	0x01B0, r24	; 0x8001b0 <FSM_state>
	// Flush FSM timer
	ResetTimer(TIMER_LCD);
     b60:	82 e0       	ldi	r24, 0x02	; 2
     b62:	0c 94 75 0e 	jmp	0x1cea	; 0x1cea <ResetTimer>

00000b66 <FSM_LCD_CreateCustomChars>:


#if (LCD_SUPPORT_CUSTOM_CHARS_SIZE > 1)
void FSM_LCD_CreateCustomChars(void)
{
	FSM_PCF8574_CreateCharacterFromFlash(0, cc_smb1);
     b66:	68 ed       	ldi	r22, 0xD8	; 216
     b68:	71 e0       	ldi	r23, 0x01	; 1
     b6a:	80 e0       	ldi	r24, 0x00	; 0
     b6c:	0e 94 00 0b 	call	0x1600	; 0x1600 <FSM_PCF8574_CreateCharacterFromFlash>
	FSM_PCF8574_CreateCharacterFromFlash(1, cc_smb2);
     b70:	60 ed       	ldi	r22, 0xD0	; 208
     b72:	71 e0       	ldi	r23, 0x01	; 1
     b74:	81 e0       	ldi	r24, 0x01	; 1
     b76:	0e 94 00 0b 	call	0x1600	; 0x1600 <FSM_PCF8574_CreateCharacterFromFlash>
	FSM_PCF8574_CreateCharacterFromFlash(2, cc_smb3);
     b7a:	68 ec       	ldi	r22, 0xC8	; 200
     b7c:	71 e0       	ldi	r23, 0x01	; 1
     b7e:	82 e0       	ldi	r24, 0x02	; 2
     b80:	0e 94 00 0b 	call	0x1600	; 0x1600 <FSM_PCF8574_CreateCharacterFromFlash>
	FSM_PCF8574_CreateCharacterFromFlash(3, cc_smb4);
     b84:	60 ec       	ldi	r22, 0xC0	; 192
     b86:	71 e0       	ldi	r23, 0x01	; 1
     b88:	83 e0       	ldi	r24, 0x03	; 3
     b8a:	0e 94 00 0b 	call	0x1600	; 0x1600 <FSM_PCF8574_CreateCharacterFromFlash>
	FSM_PCF8574_CreateCharacterFromFlash(4, cc_smb5);
     b8e:	68 eb       	ldi	r22, 0xB8	; 184
     b90:	71 e0       	ldi	r23, 0x01	; 1
     b92:	84 e0       	ldi	r24, 0x04	; 4
     b94:	0e 94 00 0b 	call	0x1600	; 0x1600 <FSM_PCF8574_CreateCharacterFromFlash>
	FSM_PCF8574_CreateCharacterFromFlash(5, cc_smb6);
     b98:	60 eb       	ldi	r22, 0xB0	; 176
     b9a:	71 e0       	ldi	r23, 0x01	; 1
     b9c:	85 e0       	ldi	r24, 0x05	; 5
     b9e:	0e 94 00 0b 	call	0x1600	; 0x1600 <FSM_PCF8574_CreateCharacterFromFlash>
	FSM_PCF8574_CreateCharacterFromFlash(6, cc_smb7);
     ba2:	68 ea       	ldi	r22, 0xA8	; 168
     ba4:	71 e0       	ldi	r23, 0x01	; 1
     ba6:	86 e0       	ldi	r24, 0x06	; 6
     ba8:	0e 94 00 0b 	call	0x1600	; 0x1600 <FSM_PCF8574_CreateCharacterFromFlash>
	FSM_PCF8574_CreateCharacterFromFlash(7, cc_smb8);
     bac:	60 ea       	ldi	r22, 0xA0	; 160
     bae:	71 e0       	ldi	r23, 0x01	; 1
     bb0:	87 e0       	ldi	r24, 0x07	; 7
     bb2:	0c 94 00 0b 	jmp	0x1600	; 0x1600 <FSM_PCF8574_CreateCharacterFromFlash>

00000bb6 <FSM_LCD_DrawCustomChar>:
}

uint8_t FSM_LCD_DrawCustomChar(char chr, uint8_t start_row, uint8_t start_col)
{
     bb6:	ff 92       	push	r15
     bb8:	0f 93       	push	r16
     bba:	1f 93       	push	r17
     bbc:	cf 93       	push	r28
     bbe:	df 93       	push	r29
     bc0:	f6 2e       	mov	r15, r22
     bc2:	c4 2f       	mov	r28, r20
     bc4:	80 52       	subi	r24, 0x20	; 32
     bc6:	87 34       	cpi	r24, 0x47	; 71
     bc8:	20 f5       	brcc	.+72     	; 0xc12 <FSM_LCD_DrawCustomChar+0x5c>
     bca:	e8 2f       	mov	r30, r24
     bcc:	f0 e0       	ldi	r31, 0x00	; 0
     bce:	ee 0f       	add	r30, r30
     bd0:	ff 1f       	adc	r31, r31
     bd2:	e1 5f       	subi	r30, 0xF1	; 241
     bd4:	fe 4f       	sbci	r31, 0xFE	; 254
     bd6:	00 81       	ld	r16, Z
     bd8:	11 81       	ldd	r17, Z+1	; 0x01
		case ':': { pChr = cc_char_colon; break; }
		case ' ': { pChr = cc_char_space; break; }
		default: break;
	}

	if(pChr != NULL) {
     bda:	01 15       	cp	r16, r1
     bdc:	11 05       	cpc	r17, r1
     bde:	c9 f0       	breq	.+50     	; 0xc12 <FSM_LCD_DrawCustomChar+0x5c>
		// Go to start position ROW & COL
		FSM_PCF8574_GoToXY(i,j);
     be0:	64 2f       	mov	r22, r20
     be2:	8f 2d       	mov	r24, r15
     be4:	0e 94 27 0b 	call	0x164e	; 0x164e <FSM_PCF8574_GoToXY>

uint8_t FSM_LCD_DrawCustomChar(char chr, uint8_t start_row, uint8_t start_col)
{
	const char * pChr = NULL;
	char c;
	uint8_t		i=start_row, j=start_col;
     be8:	dc 2f       	mov	r29, r28

	if(pChr != NULL) {
		// Go to start position ROW & COL
		FSM_PCF8574_GoToXY(i,j);
		// Draw processing line by line
		while((c = pgm_read_byte(pChr)) != '$') {
     bea:	f8 01       	movw	r30, r16
     bec:	84 91       	lpm	r24, Z
     bee:	84 32       	cpi	r24, 0x24	; 36
     bf0:	79 f0       	breq	.+30     	; 0xc10 <FSM_LCD_DrawCustomChar+0x5a>
			if(c == '&') { // <- Next line sybol
     bf2:	86 32       	cpi	r24, 0x26	; 38
     bf4:	39 f4       	brne	.+14     	; 0xc04 <FSM_LCD_DrawCustomChar+0x4e>
				// Increment ROW position
				i++;
     bf6:	f3 94       	inc	r15
				// Store COL position
				j=start_col;
				// Go to next ROW
				FSM_PCF8574_GoToXY(i, j);
     bf8:	6c 2f       	mov	r22, r28
     bfa:	8f 2d       	mov	r24, r15
     bfc:	0e 94 27 0b 	call	0x164e	; 0x164e <FSM_PCF8574_GoToXY>
		while((c = pgm_read_byte(pChr)) != '$') {
			if(c == '&') { // <- Next line sybol
				// Increment ROW position
				i++;
				// Store COL position
				j=start_col;
     c00:	dc 2f       	mov	r29, r28
     c02:	03 c0       	rjmp	.+6      	; 0xc0a <FSM_LCD_DrawCustomChar+0x54>
				// Go to next ROW
				FSM_PCF8574_GoToXY(i, j);
			} else {
				// Change col position to the end
				j++;
     c04:	df 5f       	subi	r29, 0xFF	; 255
				// Draw char
				FSM_PCF8574_AddRAWChar(c);
     c06:	0e 94 a9 0b 	call	0x1752	; 0x1752 <FSM_PCF8574_AddRAWChar>
			}
			pChr++;
     c0a:	0f 5f       	subi	r16, 0xFF	; 255
     c0c:	1f 4f       	sbci	r17, 0xFF	; 255
     c0e:	ed cf       	rjmp	.-38     	; 0xbea <FSM_LCD_DrawCustomChar+0x34>
     c10:	cd 2f       	mov	r28, r29
		}
	}
	// Return last position by Y axis with char size include
	return j;
}
     c12:	8c 2f       	mov	r24, r28
     c14:	df 91       	pop	r29
     c16:	cf 91       	pop	r28
     c18:	1f 91       	pop	r17
     c1a:	0f 91       	pop	r16
     c1c:	ff 90       	pop	r15
     c1e:	08 95       	ret

00000c20 <FSM_LCD_AddCustomCharStringToXY>:


uint8_t FSM_LCD_AddCustomCharStringToXY(char * str, uint8_t start_row, uint8_t start_col)
{
     c20:	1f 93       	push	r17
     c22:	cf 93       	push	r28
     c24:	df 93       	push	r29
     c26:	16 2f       	mov	r17, r22
     c28:	ec 01       	movw	r28, r24
	uint8_t pos_col = start_col;

	while(*str) {
     c2a:	89 91       	ld	r24, Y+
     c2c:	88 23       	and	r24, r24
     c2e:	29 f0       	breq	.+10     	; 0xc3a <FSM_LCD_AddCustomCharStringToXY+0x1a>
		// Store col position for the next SYMBOL
		pos_col = FSM_LCD_DrawCustomChar(*str, start_row, pos_col);
     c30:	61 2f       	mov	r22, r17
     c32:	0e 94 db 05 	call	0xbb6	; 0xbb6 <FSM_LCD_DrawCustomChar>
     c36:	48 2f       	mov	r20, r24
     c38:	f8 cf       	rjmp	.-16     	; 0xc2a <FSM_LCD_AddCustomCharStringToXY+0xa>
		str++;
	}
	// Return last column position
	return pos_col;
}
     c3a:	84 2f       	mov	r24, r20
     c3c:	df 91       	pop	r29
     c3e:	cf 91       	pop	r28
     c40:	1f 91       	pop	r17
     c42:	08 95       	ret

00000c44 <FSM_LCD_AddCustomCharStringToXYFromFlash>:

uint8_t FSM_LCD_AddCustomCharStringToXYFromFlash(const char * str, uint8_t start_row, uint8_t start_col)
{
     c44:	1f 93       	push	r17
     c46:	cf 93       	push	r28
     c48:	df 93       	push	r29
     c4a:	ec 01       	movw	r28, r24
     c4c:	16 2f       	mov	r17, r22
	char chr;
	uint8_t pos_col = start_col;

	while((chr = pgm_read_byte(str))) {
     c4e:	fe 01       	movw	r30, r28
     c50:	84 91       	lpm	r24, Z
     c52:	88 23       	and	r24, r24
     c54:	31 f0       	breq	.+12     	; 0xc62 <FSM_LCD_AddCustomCharStringToXYFromFlash+0x1e>
		// Store col position for the next SYMBOL
		pos_col = FSM_LCD_DrawCustomChar(chr, start_row, pos_col);
     c56:	61 2f       	mov	r22, r17
     c58:	0e 94 db 05 	call	0xbb6	; 0xbb6 <FSM_LCD_DrawCustomChar>
     c5c:	48 2f       	mov	r20, r24
		str++;
     c5e:	21 96       	adiw	r28, 0x01	; 1
     c60:	f6 cf       	rjmp	.-20     	; 0xc4e <FSM_LCD_AddCustomCharStringToXYFromFlash+0xa>
	}
	// Return last column position
	return pos_col;
}
     c62:	84 2f       	mov	r24, r20
     c64:	df 91       	pop	r29
     c66:	cf 91       	pop	r28
     c68:	1f 91       	pop	r17
     c6a:	08 95       	ret

00000c6c <FSM_LCD_Process>:
	// Flush FSM timer
	ResetTimer(TIMER_LCD);
}

void FSM_LCD_Process(void)
{
     c6c:	0f 93       	push	r16
     c6e:	1f 93       	push	r17
     c70:	cf 93       	push	r28
     c72:	df 93       	push	r29
     c74:	00 d0       	rcall	.+0      	; 0xc76 <FSM_LCD_Process+0xa>
     c76:	00 d0       	rcall	.+0      	; 0xc78 <FSM_LCD_Process+0xc>
     c78:	00 d0       	rcall	.+0      	; 0xc7a <FSM_LCD_Process+0xe>
     c7a:	cd b7       	in	r28, 0x3d	; 61
     c7c:	de b7       	in	r29, 0x3e	; 62
	uint8_t i;
	uint8_t _presence;
	char buff[6];

	switch(FSM_state) {
     c7e:	e0 91 b0 01 	lds	r30, 0x01B0	; 0x8001b0 <FSM_state>
     c82:	8e 2f       	mov	r24, r30
     c84:	90 e0       	ldi	r25, 0x00	; 0
     c86:	88 30       	cpi	r24, 0x08	; 8
     c88:	91 05       	cpc	r25, r1
     c8a:	08 f0       	brcs	.+2      	; 0xc8e <FSM_LCD_Process+0x22>
     c8c:	f3 c1       	rjmp	.+998    	; 0x1074 <FSM_LCD_Process+0x408>
     c8e:	fc 01       	movw	r30, r24
     c90:	ec 5c       	subi	r30, 0xCC	; 204
     c92:	ff 4f       	sbci	r31, 0xFF	; 255
     c94:	0c 94 a7 10 	jmp	0x214e	; 0x214e <__tablejump2__>
		/* Waiting LCD init instruction will be send */
		case FSM_LCD_STATE_LCD_INIT: {
			if(GetBCMessage(MSG_BC_PCF8574_INIT_CMD_SEND_COMPLETE)) {
     c98:	82 e0       	ldi	r24, 0x02	; 2
     c9a:	0e 94 06 0e 	call	0x1c0c	; 0x1c0c <GetBCMessage>
     c9e:	88 23       	and	r24, r24
     ca0:	09 f4       	brne	.+2      	; 0xca4 <FSM_LCD_Process+0x38>
     ca2:	e8 c1       	rjmp	.+976    	; 0x1074 <FSM_LCD_Process+0x408>
				// Load into display custom chars
				FSM_LCD_CreateCustomChars();
     ca4:	0e 94 b3 05 	call	0xb66	; 0xb66 <FSM_LCD_CreateCustomChars>
				// Goto SPLASH screen load
				FSM_state = FSM_LCD_STATE_SPLASH_DRAW;
     ca8:	82 e0       	ldi	r24, 0x02	; 2
     caa:	2a c0       	rjmp	.+84     	; 0xd00 <FSM_LCD_Process+0x94>
		case FSM_LCD_STATE_SPLASH_DRAW: {
			//   ### ###2   HW: x.x
			//   #   # #    SW: x.x
			//   ### ###
			//  SEMAPHORE
			FSM_LCD_AddCustomCharStringToXYFromFlash(LNG_SPLASH_LOGO_S1, 0, 3);
     cac:	43 e0       	ldi	r20, 0x03	; 3
     cae:	60 e0       	ldi	r22, 0x00	; 0
     cb0:	87 ef       	ldi	r24, 0xF7	; 247
     cb2:	93 e0       	ldi	r25, 0x03	; 3
     cb4:	0e 94 22 06 	call	0xc44	; 0xc44 <FSM_LCD_AddCustomCharStringToXYFromFlash>
			FSM_PCF8574_GoToXY(0,9);
     cb8:	69 e0       	ldi	r22, 0x09	; 9
     cba:	80 e0       	ldi	r24, 0x00	; 0
     cbc:	0e 94 27 0b 	call	0x164e	; 0x164e <FSM_PCF8574_GoToXY>
			FSM_PCF8574_AddStringFromFlash(LNG_SPLASH_LOGO_S1_1);
     cc0:	85 ef       	ldi	r24, 0xF5	; 245
     cc2:	93 e0       	ldi	r25, 0x03	; 3
     cc4:	0e 94 72 0b 	call	0x16e4	; 0x16e4 <FSM_PCF8574_AddStringFromFlash>
			FSM_PCF8574_GoToXY(3,2);
     cc8:	62 e0       	ldi	r22, 0x02	; 2
     cca:	83 e0       	ldi	r24, 0x03	; 3
     ccc:	0e 94 27 0b 	call	0x164e	; 0x164e <FSM_PCF8574_GoToXY>
			FSM_PCF8574_AddStringFromFlash(LNG_SPLASH_LOGO_S4);
     cd0:	8b ee       	ldi	r24, 0xEB	; 235
     cd2:	93 e0       	ldi	r25, 0x03	; 3
     cd4:	0e 94 72 0b 	call	0x16e4	; 0x16e4 <FSM_PCF8574_AddStringFromFlash>
			FSM_PCF8574_GoToXY(0,13);
     cd8:	6d e0       	ldi	r22, 0x0D	; 13
     cda:	80 e0       	ldi	r24, 0x00	; 0
     cdc:	0e 94 27 0b 	call	0x164e	; 0x164e <FSM_PCF8574_GoToXY>
			FSM_PCF8574_AddStringFromFlash(LNG_HW_VERSION);
     ce0:	83 ee       	ldi	r24, 0xE3	; 227
     ce2:	93 e0       	ldi	r25, 0x03	; 3
     ce4:	0e 94 72 0b 	call	0x16e4	; 0x16e4 <FSM_PCF8574_AddStringFromFlash>
			FSM_PCF8574_GoToXY(1,13);
     ce8:	6d e0       	ldi	r22, 0x0D	; 13
     cea:	81 e0       	ldi	r24, 0x01	; 1
     cec:	0e 94 27 0b 	call	0x164e	; 0x164e <FSM_PCF8574_GoToXY>
			FSM_PCF8574_AddStringFromFlash(LNG_SW_VERSION);
     cf0:	8b ed       	ldi	r24, 0xDB	; 219
     cf2:	93 e0       	ldi	r25, 0x03	; 3
     cf4:	0e 94 72 0b 	call	0x16e4	; 0x16e4 <FSM_PCF8574_AddStringFromFlash>
			// Prepare SPLASH show timeout countdown
			ResetTimer(TIMER_LCD);
     cf8:	82 e0       	ldi	r24, 0x02	; 2
     cfa:	0e 94 75 0e 	call	0x1cea	; 0x1cea <ResetTimer>
			// Goto waiting SHOW timeout
			FSM_state = FSM_LCD_STATE_SPLASH_SHOW;
     cfe:	83 e0       	ldi	r24, 0x03	; 3
     d00:	80 93 b0 01 	sts	0x01B0, r24	; 0x8001b0 <FSM_state>
			return;
     d04:	b7 c1       	rjmp	.+878    	; 0x1074 <FSM_LCD_Process+0x408>
		}

		/* Splash show delay */
		case FSM_LCD_STATE_SPLASH_SHOW: {
			// Waiting for SPLASH showing timeout
			if(GetTimer(TIMER_LCD) > LCD_SPLASH_SPLASH_HIDE_TIMEOUT) {
     d06:	82 e0       	ldi	r24, 0x02	; 2
     d08:	0e 94 6c 0e 	call	0x1cd8	; 0x1cd8 <GetTimer>
     d0c:	81 3d       	cpi	r24, 0xD1	; 209
     d0e:	97 40       	sbci	r25, 0x07	; 7
     d10:	08 f4       	brcc	.+2      	; 0xd14 <FSM_LCD_Process+0xa8>
     d12:	b0 c1       	rjmp	.+864    	; 0x1074 <FSM_LCD_Process+0x408>
				// Goto SPLASH hide animation
				FSM_state = FSM_LCD_STATE_SPLASH_HIDE_ANIMATION;
     d14:	84 e0       	ldi	r24, 0x04	; 4
     d16:	f4 cf       	rjmp	.-24     	; 0xd00 <FSM_LCD_Process+0x94>
		}

		/* Animated splash hiding */
		case FSM_LCD_STATE_SPLASH_HIDE_ANIMATION: {
			// Animation timeout
			if(GetTimer(TIMER_LCD) >= LCD_SPLASH_SLIDE_PERIOD) {
     d18:	82 e0       	ldi	r24, 0x02	; 2
     d1a:	0e 94 6c 0e 	call	0x1cd8	; 0x1cd8 <GetTimer>
     d1e:	49 97       	sbiw	r24, 0x19	; 25
     d20:	08 f4       	brcc	.+2      	; 0xd24 <FSM_LCD_Process+0xb8>
     d22:	a8 c1       	rjmp	.+848    	; 0x1074 <FSM_LCD_Process+0x408>
				if(splash_length--) {
     d24:	80 91 00 01 	lds	r24, 0x0100	; 0x800100 <__data_start>
     d28:	9f ef       	ldi	r25, 0xFF	; 255
     d2a:	98 0f       	add	r25, r24
     d2c:	90 93 00 01 	sts	0x0100, r25	; 0x800100 <__data_start>
     d30:	88 23       	and	r24, r24
     d32:	69 f0       	breq	.+26     	; 0xd4e <FSM_LCD_Process+0xe2>
     d34:	10 e0       	ldi	r17, 0x00	; 0
					for(i=0; i<4; i++) {
						FSM_PCF8574_GoToXY(i,splash_length);
     d36:	60 91 00 01 	lds	r22, 0x0100	; 0x800100 <__data_start>
     d3a:	81 2f       	mov	r24, r17
     d3c:	0e 94 27 0b 	call	0x164e	; 0x164e <FSM_PCF8574_GoToXY>
						FSM_PCF8574_AddRAWChar(0x20);
     d40:	80 e2       	ldi	r24, 0x20	; 32
     d42:	0e 94 a9 0b 	call	0x1752	; 0x1752 <FSM_PCF8574_AddRAWChar>
		/* Animated splash hiding */
		case FSM_LCD_STATE_SPLASH_HIDE_ANIMATION: {
			// Animation timeout
			if(GetTimer(TIMER_LCD) >= LCD_SPLASH_SLIDE_PERIOD) {
				if(splash_length--) {
					for(i=0; i<4; i++) {
     d46:	1f 5f       	subi	r17, 0xFF	; 255
     d48:	14 30       	cpi	r17, 0x04	; 4
     d4a:	a9 f7       	brne	.-22     	; 0xd36 <FSM_LCD_Process+0xca>
     d4c:	8a c1       	rjmp	.+788    	; 0x1062 <FSM_LCD_Process+0x3f6>
					// Flush FSM timer
					ResetTimer(TIMER_LCD);
					return;
				}
				// When last position is 0, send command to change shift source to cursor
				FSM_PCF8574_AddByteToQueue(PCF8574_OPT_SHIFT_CURSOR | PCF8574_OPT_SHIFT_LEFT, PCF8574_COMMAND, PCF8574_BYTE_FULL, 1);
     d4e:	21 e0       	ldi	r18, 0x01	; 1
     d50:	40 e0       	ldi	r20, 0x00	; 0
     d52:	60 e0       	ldi	r22, 0x00	; 0
     d54:	80 e1       	ldi	r24, 0x10	; 16
     d56:	0e 94 dd 09 	call	0x13ba	; 0x13ba <FSM_PCF8574_AddByteToQueue>
				// Clear display after animation
				FSM_PCF8574_Clear();
     d5a:	0e 94 ae 0b 	call	0x175c	; 0x175c <FSM_PCF8574_Clear>
				// Goto sensor check state
				FSM_state = FSM_LCD_STATE_DRAW_SENSORS_STATE_SCREEN;
     d5e:	85 e0       	ldi	r24, 0x05	; 5
     d60:	cf cf       	rjmp	.-98     	; 0xd00 <FSM_LCD_Process+0x94>
		case FSM_LCD_STATE_DRAW_SENSORS_STATE_SCREEN: {
			// Peripheral presence:
			//  -> RTC ...
			//  -> DHT ...
			//  -> CO2 ...
			FSM_PCF8574_AddStringFromFlash(LNG_DM1_S1);
     d62:	84 ec       	ldi	r24, 0xC4	; 196
     d64:	93 e0       	ldi	r25, 0x03	; 3
     d66:	0e 94 72 0b 	call	0x16e4	; 0x16e4 <FSM_PCF8574_AddStringFromFlash>
			FSM_PCF8574_AddStringFromFlash(LNG_DM1_S2);
     d6a:	86 eb       	ldi	r24, 0xB6	; 182
     d6c:	93 e0       	ldi	r25, 0x03	; 3
     d6e:	0e 94 72 0b 	call	0x16e4	; 0x16e4 <FSM_PCF8574_AddStringFromFlash>
			FSM_PCF8574_AddStringFromFlash(LNG_DM1_S3);
     d72:	88 ea       	ldi	r24, 0xA8	; 168
     d74:	93 e0       	ldi	r25, 0x03	; 3
     d76:	0e 94 72 0b 	call	0x16e4	; 0x16e4 <FSM_PCF8574_AddStringFromFlash>
			FSM_PCF8574_AddStringFromFlash(LNG_DM1_S4);
     d7a:	8c e9       	ldi	r24, 0x9C	; 156
     d7c:	93 e0       	ldi	r25, 0x03	; 3
     d7e:	0e 94 72 0b 	call	0x16e4	; 0x16e4 <FSM_PCF8574_AddStringFromFlash>
			// Goto sensors test result
			FSM_state = FSM_LCD_STATE_ANIMATION_SENSORS_STATE_SCREEN;
     d82:	86 e0       	ldi	r24, 0x06	; 6
     d84:	6c c1       	rjmp	.+728    	; 0x105e <FSM_LCD_Process+0x3f2>
		}

		/* Animation sensors check list */
		case FSM_LCD_STATE_ANIMATION_SENSORS_STATE_SCREEN: {
			uint16_t curr_timeout = 500;
			if(current_row == 2) {
     d86:	80 91 af 01 	lds	r24, 0x01AF	; 0x8001af <current_row>
     d8a:	82 30       	cpi	r24, 0x02	; 2
     d8c:	19 f4       	brne	.+6      	; 0xd94 <FSM_LCD_Process+0x128>
				curr_timeout = MHZ19B_REFRESH_PERIOD + 1000;
     d8e:	08 e0       	ldi	r16, 0x08	; 8
     d90:	12 e5       	ldi	r17, 0x52	; 82
     d92:	02 c0       	rjmp	.+4      	; 0xd98 <FSM_LCD_Process+0x12c>
			return;
		}

		/* Animation sensors check list */
		case FSM_LCD_STATE_ANIMATION_SENSORS_STATE_SCREEN: {
			uint16_t curr_timeout = 500;
     d94:	04 ef       	ldi	r16, 0xF4	; 244
     d96:	11 e0       	ldi	r17, 0x01	; 1
			if(current_row == 2) {
				curr_timeout = MHZ19B_REFRESH_PERIOD + 1000;
			}

			/* Animate row by row with delay */
			if(GetTimer(TIMER_LCD) > curr_timeout) {
     d98:	82 e0       	ldi	r24, 0x02	; 2
     d9a:	0e 94 6c 0e 	call	0x1cd8	; 0x1cd8 <GetTimer>
     d9e:	08 17       	cp	r16, r24
     da0:	19 07       	cpc	r17, r25
     da2:	08 f0       	brcs	.+2      	; 0xda6 <FSM_LCD_Process+0x13a>
     da4:	67 c1       	rjmp	.+718    	; 0x1074 <FSM_LCD_Process+0x408>
				// Showing sensors state
				switch(++current_row) {
     da6:	80 91 af 01 	lds	r24, 0x01AF	; 0x8001af <current_row>
     daa:	8f 5f       	subi	r24, 0xFF	; 255
     dac:	80 93 af 01 	sts	0x01AF, r24	; 0x8001af <current_row>
     db0:	82 30       	cpi	r24, 0x02	; 2
     db2:	49 f0       	breq	.+18     	; 0xdc6 <FSM_LCD_Process+0x15a>
     db4:	83 30       	cpi	r24, 0x03	; 3
     db6:	51 f0       	breq	.+20     	; 0xdcc <FSM_LCD_Process+0x160>
     db8:	81 30       	cpi	r24, 0x01	; 1
     dba:	69 f4       	brne	.+26     	; 0xdd6 <FSM_LCD_Process+0x16a>
						FSM_state = FSM_LCD_STATE_IDLE;
						return;
					}
				}
				/* Draw state */
				if(_presence) {
     dbc:	90 91 8f 03 	lds	r25, 0x038F	; 0x80038f <rtc>
     dc0:	99 23       	and	r25, r25
     dc2:	99 f0       	breq	.+38     	; 0xdea <FSM_LCD_Process+0x17e>
     dc4:	0c c0       	rjmp	.+24     	; 0xdde <FSM_LCD_Process+0x172>
						_presence = rtc._presence;
						break;
					}
					/* DHT sensor */
					case 2: {
						if(!dht._failed) {
     dc6:	90 91 9d 03 	lds	r25, 0x039D	; 0x80039d <dht>
     dca:	02 c0       	rjmp	.+4      	; 0xdd0 <FSM_LCD_Process+0x164>
						}
						break;
					}
					/* CO2 sensor */
					case 3: {
						if(!mhz19b._error) {
     dcc:	90 91 99 03 	lds	r25, 0x0399	; 0x800399 <mhz19b+0x1>
     dd0:	99 23       	and	r25, r25
     dd2:	29 f0       	breq	.+10     	; 0xdde <FSM_LCD_Process+0x172>
     dd4:	0a c0       	rjmp	.+20     	; 0xdea <FSM_LCD_Process+0x17e>
						break;
					}
					/* Exit to idle state */
					default: {
						// Send message for complete startup detect
						SendMessageWOParam(MSG_CHK_SENSORS_COMPLETE);
     dd6:	83 e0       	ldi	r24, 0x03	; 3
     dd8:	0e 94 d0 0d 	call	0x1ba0	; 0x1ba0 <SendMessageWOParam>
     ddc:	36 c1       	rjmp	.+620    	; 0x104a <FSM_LCD_Process+0x3de>
						return;
					}
				}
				/* Draw state */
				if(_presence) {
					FSM_PCF8574_GoToXY(current_row, PCF8574_COLS-2);
     dde:	62 e1       	ldi	r22, 0x12	; 18
     de0:	0e 94 27 0b 	call	0x164e	; 0x164e <FSM_PCF8574_GoToXY>
					FSM_PCF8574_AddStringFromFlash(LNG_OK);
     de4:	85 e7       	ldi	r24, 0x75	; 117
     de6:	93 e0       	ldi	r25, 0x03	; 3
     de8:	05 c0       	rjmp	.+10     	; 0xdf4 <FSM_LCD_Process+0x188>
				} else {
					FSM_PCF8574_GoToXY(current_row, PCF8574_COLS-4);
     dea:	60 e1       	ldi	r22, 0x10	; 16
     dec:	0e 94 27 0b 	call	0x164e	; 0x164e <FSM_PCF8574_GoToXY>
					FSM_PCF8574_AddStringFromFlash(LNG_FAIL);
     df0:	88 e7       	ldi	r24, 0x78	; 120
     df2:	93 e0       	ldi	r25, 0x03	; 3
     df4:	0e 94 72 0b 	call	0x16e4	; 0x16e4 <FSM_PCF8574_AddStringFromFlash>
     df8:	34 c1       	rjmp	.+616    	; 0x1062 <FSM_LCD_Process+0x3f6>
			}
			return;
		}

		case FSM_LCD_STATE_REFRESH_SCREEN: {
			uint8_t _full_refresh = (device.mode != device.last_mode);
     dfa:	80 91 ac 03 	lds	r24, 0x03AC	; 0x8003ac <device+0x3>
     dfe:	90 91 ad 03 	lds	r25, 0x03AD	; 0x8003ad <device+0x4>
			device.last_mode = device.mode;
     e02:	80 93 ad 03 	sts	0x03AD, r24	; 0x8003ad <device+0x4>

			switch(device.mode) {
     e06:	81 30       	cpi	r24, 0x01	; 1
     e08:	21 f0       	breq	.+8      	; 0xe12 <FSM_LCD_Process+0x1a6>
     e0a:	82 30       	cpi	r24, 0x02	; 2
     e0c:	09 f4       	brne	.+2      	; 0xe10 <FSM_LCD_Process+0x1a4>
     e0e:	ba c0       	rjmp	.+372    	; 0xf84 <FSM_LCD_Process+0x318>
     e10:	17 c1       	rjmp	.+558    	; 0x1040 <FSM_LCD_Process+0x3d4>

				case DEVICE_MODE_IDLE: {
					// @TODO: Need optimization

					// If mode was changed - full refresh LCD screen
					if(_full_refresh) {
     e12:	91 30       	cpi	r25, 0x01	; 1
     e14:	91 f0       	breq	.+36     	; 0xe3a <FSM_LCD_Process+0x1ce>
						// Clear display
						FSM_PCF8574_Clear();
     e16:	0e 94 ae 0b 	call	0x175c	; 0x175c <FSM_PCF8574_Clear>
						// Load first line of splash string to display
						FSM_PCF8574_GoToXY(0, PCF8574_COLS-3);
     e1a:	61 e1       	ldi	r22, 0x11	; 17
     e1c:	80 e0       	ldi	r24, 0x00	; 0
     e1e:	0e 94 27 0b 	call	0x164e	; 0x164e <FSM_PCF8574_GoToXY>
						FSM_PCF8574_AddStringFromFlash(LNG_SMB_POINT);
     e22:	81 e8       	ldi	r24, 0x81	; 129
     e24:	93 e0       	ldi	r25, 0x03	; 3
     e26:	0e 94 72 0b 	call	0x16e4	; 0x16e4 <FSM_PCF8574_AddStringFromFlash>
						FSM_PCF8574_GoToXY(3, 0);
     e2a:	60 e0       	ldi	r22, 0x00	; 0
     e2c:	83 e0       	ldi	r24, 0x03	; 3
     e2e:	0e 94 27 0b 	call	0x164e	; 0x164e <FSM_PCF8574_GoToXY>
						FSM_PCF8574_AddStringFromFlash(LNG_DM_MAIN_S4);
     e32:	87 e8       	ldi	r24, 0x87	; 135
     e34:	93 e0       	ldi	r25, 0x03	; 3
     e36:	0e 94 72 0b 	call	0x16e4	; 0x16e4 <FSM_PCF8574_AddStringFromFlash>
					}

					// Draw date data
					FSM_PCF8574_GoToXY(0, PCF8574_COLS-5);
     e3a:	6f e0       	ldi	r22, 0x0F	; 15
     e3c:	80 e0       	ldi	r24, 0x00	; 0
     e3e:	0e 94 27 0b 	call	0x164e	; 0x164e <FSM_PCF8574_GoToXY>
					FSM_PCF8574_AddString(utoa_cycle_sub8(rtc.day, buff, 0, 2));
     e42:	22 e0       	ldi	r18, 0x02	; 2
     e44:	40 e0       	ldi	r20, 0x00	; 0
     e46:	be 01       	movw	r22, r28
     e48:	6f 5f       	subi	r22, 0xFF	; 255
     e4a:	7f 4f       	sbci	r23, 0xFF	; 255
     e4c:	80 91 94 03 	lds	r24, 0x0394	; 0x800394 <rtc+0x5>
     e50:	0e 94 7e 0e 	call	0x1cfc	; 0x1cfc <utoa_cycle_sub8>
     e54:	0e 94 3c 0b 	call	0x1678	; 0x1678 <FSM_PCF8574_AddString>
					FSM_PCF8574_GoToXY(0, PCF8574_COLS-2);
     e58:	62 e1       	ldi	r22, 0x12	; 18
     e5a:	80 e0       	ldi	r24, 0x00	; 0
     e5c:	0e 94 27 0b 	call	0x164e	; 0x164e <FSM_PCF8574_GoToXY>
					FSM_PCF8574_AddString(utoa_cycle_sub8(rtc.month, buff, 0, 2));
     e60:	22 e0       	ldi	r18, 0x02	; 2
     e62:	40 e0       	ldi	r20, 0x00	; 0
     e64:	be 01       	movw	r22, r28
     e66:	6f 5f       	subi	r22, 0xFF	; 255
     e68:	7f 4f       	sbci	r23, 0xFF	; 255
     e6a:	80 91 95 03 	lds	r24, 0x0395	; 0x800395 <rtc+0x6>
     e6e:	0e 94 7e 0e 	call	0x1cfc	; 0x1cfc <utoa_cycle_sub8>
     e72:	0e 94 3c 0b 	call	0x1678	; 0x1678 <FSM_PCF8574_AddString>
					FSM_PCF8574_GoToXY(1, PCF8574_COLS-4);
     e76:	60 e1       	ldi	r22, 0x10	; 16
     e78:	81 e0       	ldi	r24, 0x01	; 1
     e7a:	0e 94 27 0b 	call	0x164e	; 0x164e <FSM_PCF8574_GoToXY>
					FSM_PCF8574_AddStringFromFlash((char *)LNG_DOW[rtc.dow]);
     e7e:	e0 91 93 03 	lds	r30, 0x0393	; 0x800393 <rtc+0x4>
     e82:	f0 e0       	ldi	r31, 0x00	; 0
     e84:	ee 0f       	add	r30, r30
     e86:	ff 1f       	adc	r31, r31
     e88:	ef 5f       	subi	r30, 0xFF	; 255
     e8a:	fe 4f       	sbci	r31, 0xFE	; 254
     e8c:	80 81       	ld	r24, Z
     e8e:	91 81       	ldd	r25, Z+1	; 0x01
     e90:	0e 94 72 0b 	call	0x16e4	; 0x16e4 <FSM_PCF8574_AddStringFromFlash>
					// Draw T data
					FSM_PCF8574_GoToXY(3, 0);
     e94:	60 e0       	ldi	r22, 0x00	; 0
     e96:	83 e0       	ldi	r24, 0x03	; 3
     e98:	0e 94 27 0b 	call	0x164e	; 0x164e <FSM_PCF8574_GoToXY>
					if(dht.temperature.sign) {
     e9c:	80 91 a4 03 	lds	r24, 0x03A4	; 0x8003a4 <dht+0x7>
     ea0:	88 23       	and	r24, r24
     ea2:	19 f0       	breq	.+6      	; 0xeaa <FSM_LCD_Process+0x23e>
						FSM_PCF8574_AddStringFromFlash(LNG_SMB_MINUS);
     ea4:	8f e7       	ldi	r24, 0x7F	; 127
     ea6:	93 e0       	ldi	r25, 0x03	; 3
     ea8:	02 c0       	rjmp	.+4      	; 0xeae <FSM_LCD_Process+0x242>
					} else {
						FSM_PCF8574_AddStringFromFlash(LNG_SMB_SPACE);
     eaa:	8d e7       	ldi	r24, 0x7D	; 125
     eac:	93 e0       	ldi	r25, 0x03	; 3
     eae:	0e 94 72 0b 	call	0x16e4	; 0x16e4 <FSM_PCF8574_AddStringFromFlash>
					}
					FSM_PCF8574_AddString(utoa_cycle_sub8(dht.temperature.value, buff, 1, 2));
     eb2:	22 e0       	ldi	r18, 0x02	; 2
     eb4:	41 e0       	ldi	r20, 0x01	; 1
     eb6:	be 01       	movw	r22, r28
     eb8:	6f 5f       	subi	r22, 0xFF	; 255
     eba:	7f 4f       	sbci	r23, 0xFF	; 255
     ebc:	80 91 a5 03 	lds	r24, 0x03A5	; 0x8003a5 <dht+0x8>
     ec0:	0e 94 7e 0e 	call	0x1cfc	; 0x1cfc <utoa_cycle_sub8>
     ec4:	0e 94 3c 0b 	call	0x1678	; 0x1678 <FSM_PCF8574_AddString>
					// Draw H data
					FSM_PCF8574_GoToXY(3, 7);
     ec8:	67 e0       	ldi	r22, 0x07	; 7
     eca:	83 e0       	ldi	r24, 0x03	; 3
     ecc:	0e 94 27 0b 	call	0x164e	; 0x164e <FSM_PCF8574_GoToXY>
					FSM_PCF8574_AddString(utoa_cycle_sub8(dht.humidity.value, buff, 1, 2));
     ed0:	22 e0       	ldi	r18, 0x02	; 2
     ed2:	41 e0       	ldi	r20, 0x01	; 1
     ed4:	be 01       	movw	r22, r28
     ed6:	6f 5f       	subi	r22, 0xFF	; 255
     ed8:	7f 4f       	sbci	r23, 0xFF	; 255
     eda:	80 91 a7 03 	lds	r24, 0x03A7	; 0x8003a7 <dht+0xa>
     ede:	0e 94 7e 0e 	call	0x1cfc	; 0x1cfc <utoa_cycle_sub8>
     ee2:	0e 94 3c 0b 	call	0x1678	; 0x1678 <FSM_PCF8574_AddString>
					// Draw CO2 data
					FSM_PCF8574_GoToXY(3,13);
     ee6:	6d e0       	ldi	r22, 0x0D	; 13
     ee8:	83 e0       	ldi	r24, 0x03	; 3
     eea:	0e 94 27 0b 	call	0x164e	; 0x164e <FSM_PCF8574_GoToXY>
					FSM_PCF8574_AddString(utoa_cycle_sub16(mhz19b.value, buff, 4));
     eee:	44 e0       	ldi	r20, 0x04	; 4
     ef0:	be 01       	movw	r22, r28
     ef2:	6f 5f       	subi	r22, 0xFF	; 255
     ef4:	7f 4f       	sbci	r23, 0xFF	; 255
     ef6:	80 91 9b 03 	lds	r24, 0x039B	; 0x80039b <mhz19b+0x3>
     efa:	90 91 9c 03 	lds	r25, 0x039C	; 0x80039c <mhz19b+0x4>
     efe:	0e 94 b7 0e 	call	0x1d6e	; 0x1d6e <utoa_cycle_sub16>
     f02:	0e 94 3c 0b 	call	0x1678	; 0x1678 <FSM_PCF8574_AddString>
					FSM_PCF8574_GoToXY(3,12);
     f06:	6c e0       	ldi	r22, 0x0C	; 12
     f08:	83 e0       	ldi	r24, 0x03	; 3
     f0a:	0e 94 27 0b 	call	0x164e	; 0x164e <FSM_PCF8574_GoToXY>
					if(mhz19b._error) {
     f0e:	80 91 99 03 	lds	r24, 0x0399	; 0x800399 <mhz19b+0x1>
     f12:	88 23       	and	r24, r24
     f14:	19 f0       	breq	.+6      	; 0xf1c <FSM_LCD_Process+0x2b0>
						FSM_PCF8574_AddStringFromFlash(PSTR("!"));
     f16:	8e e8       	ldi	r24, 0x8E	; 142
     f18:	90 e0       	ldi	r25, 0x00	; 0
     f1a:	02 c0       	rjmp	.+4      	; 0xf20 <FSM_LCD_Process+0x2b4>
					} else {
						FSM_PCF8574_AddStringFromFlash(LNG_SMB_SPACE);
     f1c:	8d e7       	ldi	r24, 0x7D	; 125
     f1e:	93 e0       	ldi	r25, 0x03	; 3
     f20:	0e 94 72 0b 	call	0x16e4	; 0x16e4 <FSM_PCF8574_AddStringFromFlash>
					}
					// Draw big clock data
					uint8_t pos = FSM_LCD_AddCustomCharStringToXY(utoa_cycle_sub8(rtc.hour, buff, 1, 2), 0, 0);
     f24:	22 e0       	ldi	r18, 0x02	; 2
     f26:	41 e0       	ldi	r20, 0x01	; 1
     f28:	be 01       	movw	r22, r28
     f2a:	6f 5f       	subi	r22, 0xFF	; 255
     f2c:	7f 4f       	sbci	r23, 0xFF	; 255
     f2e:	80 91 92 03 	lds	r24, 0x0392	; 0x800392 <rtc+0x3>
     f32:	0e 94 7e 0e 	call	0x1cfc	; 0x1cfc <utoa_cycle_sub8>
     f36:	40 e0       	ldi	r20, 0x00	; 0
     f38:	60 e0       	ldi	r22, 0x00	; 0
     f3a:	0e 94 10 06 	call	0xc20	; 0xc20 <FSM_LCD_AddCustomCharStringToXY>
     f3e:	18 2f       	mov	r17, r24
					FSM_LCD_AddCustomCharStringToXY(utoa_cycle_sub8(rtc.min, buff, 0, 2), 0, ++pos);
     f40:	22 e0       	ldi	r18, 0x02	; 2
     f42:	40 e0       	ldi	r20, 0x00	; 0
     f44:	be 01       	movw	r22, r28
     f46:	6f 5f       	subi	r22, 0xFF	; 255
     f48:	7f 4f       	sbci	r23, 0xFF	; 255
     f4a:	80 91 91 03 	lds	r24, 0x0391	; 0x800391 <rtc+0x2>
     f4e:	0e 94 7e 0e 	call	0x1cfc	; 0x1cfc <utoa_cycle_sub8>
     f52:	41 e0       	ldi	r20, 0x01	; 1
     f54:	41 0f       	add	r20, r17
     f56:	60 e0       	ldi	r22, 0x00	; 0
     f58:	0e 94 10 06 	call	0xc20	; 0xc20 <FSM_LCD_AddCustomCharStringToXY>
					// Draw blinking colon
					FSM_PCF8574_GoToXY(1,6);
     f5c:	66 e0       	ldi	r22, 0x06	; 6
     f5e:	81 e0       	ldi	r24, 0x01	; 1
     f60:	0e 94 27 0b 	call	0x164e	; 0x164e <FSM_PCF8574_GoToXY>
					if((_colon_blink ^= 0x1)) {
     f64:	90 91 ae 01 	lds	r25, 0x01AE	; 0x8001ae <_colon_blink>
     f68:	81 e0       	ldi	r24, 0x01	; 1
     f6a:	89 27       	eor	r24, r25
     f6c:	80 93 ae 01 	sts	0x01AE, r24	; 0x8001ae <_colon_blink>
     f70:	88 23       	and	r24, r24
     f72:	19 f0       	breq	.+6      	; 0xf7a <FSM_LCD_Process+0x30e>
						FSM_PCF8574_AddStringFromFlash(LNG_SMB_COLON);
     f74:	83 e8       	ldi	r24, 0x83	; 131
     f76:	93 e0       	ldi	r25, 0x03	; 3
     f78:	02 c0       	rjmp	.+4      	; 0xf7e <FSM_LCD_Process+0x312>
					} else {
						FSM_PCF8574_AddStringFromFlash(LNG_SMB_SPACE);
     f7a:	8d e7       	ldi	r24, 0x7D	; 125
     f7c:	93 e0       	ldi	r25, 0x03	; 3
     f7e:	0e 94 72 0b 	call	0x16e4	; 0x16e4 <FSM_PCF8574_AddStringFromFlash>
     f82:	60 c0       	rjmp	.+192    	; 0x1044 <FSM_LCD_Process+0x3d8>
					// /@TODO: Need optimization
					break;
				}

				case DEVICE_MODE_SHOW_MENU: {
					if(device.flags._menu_changed) {
     f84:	80 91 ae 03 	lds	r24, 0x03AE	; 0x8003ae <device+0x5>
     f88:	88 23       	and	r24, r24
     f8a:	09 f4       	brne	.+2      	; 0xf8e <FSM_LCD_Process+0x322>
     f8c:	5b c0       	rjmp	.+182    	; 0x1044 <FSM_LCD_Process+0x3d8>
						// Flush menu change flag
						device.flags._menu_changed = 0;
     f8e:	10 92 ae 03 	sts	0x03AE, r1	; 0x8003ae <device+0x5>
						// Clear display
						FSM_PCF8574_Clear();
     f92:	0e 94 ae 0b 	call	0x175c	; 0x175c <FSM_PCF8574_Clear>
						// Cursor movement procedure
						if((menu_item_t *)pgm_read_word(&last_menu_item->Previous) == (void *)selected_menu_item) {
     f96:	80 91 ac 01 	lds	r24, 0x01AC	; 0x8001ac <last_menu_item>
     f9a:	90 91 ad 01 	lds	r25, 0x01AD	; 0x8001ad <last_menu_item+0x1>
     f9e:	fc 01       	movw	r30, r24
     fa0:	32 96       	adiw	r30, 0x02	; 2
     fa2:	25 91       	lpm	r18, Z+
     fa4:	34 91       	lpm	r19, Z
     fa6:	40 91 8d 03 	lds	r20, 0x038D	; 0x80038d <selected_menu_item>
     faa:	50 91 8e 03 	lds	r21, 0x038E	; 0x80038e <selected_menu_item+0x1>
     fae:	42 17       	cp	r20, r18
     fb0:	53 07       	cpc	r21, r19
     fb2:	39 f4       	brne	.+14     	; 0xfc2 <FSM_LCD_Process+0x356>
							if(device.menu_cursor > 0) {
     fb4:	20 91 ab 03 	lds	r18, 0x03AB	; 0x8003ab <device+0x2>
     fb8:	22 23       	and	r18, r18
     fba:	19 f0       	breq	.+6      	; 0xfc2 <FSM_LCD_Process+0x356>
								device.menu_cursor--;
     fbc:	21 50       	subi	r18, 0x01	; 1
     fbe:	20 93 ab 03 	sts	0x03AB, r18	; 0x8003ab <device+0x2>
							}
						}
						if((menu_item_t *)pgm_read_word(&last_menu_item->Next) == (void *)selected_menu_item) {
     fc2:	fc 01       	movw	r30, r24
     fc4:	85 91       	lpm	r24, Z+
     fc6:	94 91       	lpm	r25, Z
     fc8:	48 17       	cp	r20, r24
     fca:	59 07       	cpc	r21, r25
     fcc:	39 f4       	brne	.+14     	; 0xfdc <FSM_LCD_Process+0x370>
							if(device.menu_cursor < PCF8574_ROWS-1) {
     fce:	80 91 ab 03 	lds	r24, 0x03AB	; 0x8003ab <device+0x2>
     fd2:	83 30       	cpi	r24, 0x03	; 3
     fd4:	18 f4       	brcc	.+6      	; 0xfdc <FSM_LCD_Process+0x370>
								device.menu_cursor++;
     fd6:	8f 5f       	subi	r24, 0xFF	; 255
     fd8:	80 93 ab 03 	sts	0x03AB, r24	; 0x8003ab <device+0x2>

		/* Animation sensors check list */
		case FSM_LCD_STATE_ANIMATION_SENSORS_STATE_SCREEN: {
			uint16_t curr_timeout = 500;
			if(current_row == 2) {
				curr_timeout = MHZ19B_REFRESH_PERIOD + 1000;
     fdc:	10 e0       	ldi	r17, 0x00	; 0
							}
						}
						// Draw menu on the LCD line by line
						for(uint8_t i=0; i < PCF8574_ROWS; i++) {
							// Draw cursor
							FSM_PCF8574_GoToXY(i,0);
     fde:	60 e0       	ldi	r22, 0x00	; 0
     fe0:	81 2f       	mov	r24, r17
     fe2:	0e 94 27 0b 	call	0x164e	; 0x164e <FSM_PCF8574_GoToXY>
							if(device.menu_cursor == i) {
     fe6:	80 91 ab 03 	lds	r24, 0x03AB	; 0x8003ab <device+0x2>
     fea:	81 13       	cpse	r24, r17
     fec:	03 c0       	rjmp	.+6      	; 0xff4 <FSM_LCD_Process+0x388>
								FSM_PCF8574_AddStringFromFlash(LNG_SMB_ANGLE_BRACKET_RIGHT);
     fee:	85 e8       	ldi	r24, 0x85	; 133
     ff0:	93 e0       	ldi	r25, 0x03	; 3
     ff2:	02 c0       	rjmp	.+4      	; 0xff8 <FSM_LCD_Process+0x38c>
							} else {
								FSM_PCF8574_AddStringFromFlash(LNG_SMB_SPACE);
     ff4:	8d e7       	ldi	r24, 0x7D	; 125
     ff6:	93 e0       	ldi	r25, 0x03	; 3
     ff8:	0e 94 72 0b 	call	0x16e4	; 0x16e4 <FSM_PCF8574_AddStringFromFlash>
							}
							// Draw menu item title
							uint8_t shift = i-device.menu_cursor;
     ffc:	80 91 ab 03 	lds	r24, 0x03AB	; 0x8003ab <device+0x2>
    1000:	01 2f       	mov	r16, r17
    1002:	08 1b       	sub	r16, r24
							FSM_PCF8574_GoToXY(i,1);
    1004:	61 e0       	ldi	r22, 0x01	; 1
    1006:	81 2f       	mov	r24, r17
    1008:	0e 94 27 0b 	call	0x164e	; 0x164e <FSM_PCF8574_GoToXY>
							FSM_PCF8574_AddStringFromFlash(MENU_GetMenuTextByShift(shift));
    100c:	80 2f       	mov	r24, r16
    100e:	0e 94 2e 10 	call	0x205c	; 0x205c <MENU_GetMenuTextByShift>
    1012:	0e 94 72 0b 	call	0x16e4	; 0x16e4 <FSM_PCF8574_AddStringFromFlash>
							// Draw subcategory symbol
							FSM_PCF8574_GoToXY(i,PCF8574_COLS-2);
    1016:	62 e1       	ldi	r22, 0x12	; 18
    1018:	81 2f       	mov	r24, r17
    101a:	0e 94 27 0b 	call	0x164e	; 0x164e <FSM_PCF8574_GoToXY>
							FSM_PCF8574_AddStringFromFlash(MENU_GetChildMenuSymbolByShift(shift));
    101e:	80 2f       	mov	r24, r16
    1020:	0e 94 58 10 	call	0x20b0	; 0x20b0 <MENU_GetChildMenuSymbolByShift>
    1024:	0e 94 72 0b 	call	0x16e4	; 0x16e4 <FSM_PCF8574_AddStringFromFlash>
							if(device.menu_cursor < PCF8574_ROWS-1) {
								device.menu_cursor++;
							}
						}
						// Draw menu on the LCD line by line
						for(uint8_t i=0; i < PCF8574_ROWS; i++) {
    1028:	1f 5f       	subi	r17, 0xFF	; 255
    102a:	14 30       	cpi	r17, 0x04	; 4
    102c:	c1 f6       	brne	.-80     	; 0xfde <FSM_LCD_Process+0x372>
							// Draw subcategory symbol
							FSM_PCF8574_GoToXY(i,PCF8574_COLS-2);
							FSM_PCF8574_AddStringFromFlash(MENU_GetChildMenuSymbolByShift(shift));
						}
						// Store last menu item pointer
						last_menu_item = selected_menu_item;
    102e:	80 91 8d 03 	lds	r24, 0x038D	; 0x80038d <selected_menu_item>
    1032:	90 91 8e 03 	lds	r25, 0x038E	; 0x80038e <selected_menu_item+0x1>
    1036:	90 93 ad 01 	sts	0x01AD, r25	; 0x8001ad <last_menu_item+0x1>
    103a:	80 93 ac 01 	sts	0x01AC, r24	; 0x8001ac <last_menu_item>
    103e:	02 c0       	rjmp	.+4      	; 0x1044 <FSM_LCD_Process+0x3d8>
					}
					break;
				}

				default: {
					FSM_PCF8574_Clear();
    1040:	0e 94 ae 0b 	call	0x175c	; 0x175c <FSM_PCF8574_Clear>
					break;
				}
			}
			// Flush FSM timer
			ResetTimer(TIMER_LCD);
    1044:	82 e0       	ldi	r24, 0x02	; 2
    1046:	0e 94 75 0e 	call	0x1cea	; 0x1cea <ResetTimer>
			// Goto idle state
			FSM_state = FSM_LCD_STATE_IDLE;
    104a:	10 92 b0 01 	sts	0x01B0, r1	; 0x8001b0 <FSM_state>
			return;
    104e:	12 c0       	rjmp	.+36     	; 0x1074 <FSM_LCD_Process+0x408>
		}

		/* Default work state */
		case FSM_LCD_STATE_IDLE: {
			if(GetTimer(TIMER_LCD) >= LCD_REFRESH_PERIOD || GetMessage(MSG_LCD_REFRESH_DISPLAY)) {
    1050:	82 e0       	ldi	r24, 0x02	; 2
    1052:	0e 94 6c 0e 	call	0x1cd8	; 0x1cd8 <GetTimer>
    1056:	84 3f       	cpi	r24, 0xF4	; 244
    1058:	91 40       	sbci	r25, 0x01	; 1
    105a:	38 f0       	brcs	.+14     	; 0x106a <FSM_LCD_Process+0x3fe>
				// Set next FSM state
				FSM_state = FSM_LCD_STATE_REFRESH_SCREEN;
    105c:	87 e0       	ldi	r24, 0x07	; 7
    105e:	80 93 b0 01 	sts	0x01B0, r24	; 0x8001b0 <FSM_state>
				ResetTimer(TIMER_LCD);
    1062:	82 e0       	ldi	r24, 0x02	; 2
    1064:	0e 94 75 0e 	call	0x1cea	; 0x1cea <ResetTimer>
    1068:	05 c0       	rjmp	.+10     	; 0x1074 <FSM_LCD_Process+0x408>
			return;
		}

		/* Default work state */
		case FSM_LCD_STATE_IDLE: {
			if(GetTimer(TIMER_LCD) >= LCD_REFRESH_PERIOD || GetMessage(MSG_LCD_REFRESH_DISPLAY)) {
    106a:	81 e0       	ldi	r24, 0x01	; 1
    106c:	0e 94 df 0d 	call	0x1bbe	; 0x1bbe <GetMessage>
    1070:	81 11       	cpse	r24, r1
    1072:	f4 cf       	rjmp	.-24     	; 0x105c <FSM_LCD_Process+0x3f0>
			return;
		}

		default: break;
	}
}
    1074:	26 96       	adiw	r28, 0x06	; 6
    1076:	0f b6       	in	r0, 0x3f	; 63
    1078:	f8 94       	cli
    107a:	de bf       	out	0x3e, r29	; 62
    107c:	0f be       	out	0x3f, r0	; 63
    107e:	cd bf       	out	0x3d, r28	; 61
    1080:	df 91       	pop	r29
    1082:	cf 91       	pop	r28
    1084:	1f 91       	pop	r17
    1086:	0f 91       	pop	r16
    1088:	08 95       	ret

0000108a <FSM_LEDS_Init>:
/* FUNCTIONS                                                            */
/************************************************************************/
void FSM_LEDS_Init(void)
{
	// Set next FSM state
	FSM_state = FSM_LEDS_STATE_IDLE;
    108a:	10 92 b4 01 	sts	0x01B4, r1	; 0x8001b4 <FSM_state>
	// Initialize leds bitmap
	led_bitmap=0;
    108e:	10 92 b3 01 	sts	0x01B3, r1	; 0x8001b3 <led_bitmap>
    1092:	08 95       	ret

00001094 <FSM_LEDS_Process>:
}

void FSM_LEDS_Process(void)
{
    1094:	cf 93       	push	r28
	switch(FSM_state) {
    1096:	c0 91 b4 01 	lds	r28, 0x01B4	; 0x8001b4 <FSM_state>
    109a:	c1 30       	cpi	r28, 0x01	; 1
    109c:	29 f0       	breq	.+10     	; 0x10a8 <FSM_LEDS_Process+0x14>
    109e:	a8 f1       	brcs	.+106    	; 0x110a <FSM_LEDS_Process+0x76>
    10a0:	c2 30       	cpi	r28, 0x02	; 2
    10a2:	09 f4       	brne	.+2      	; 0x10a6 <FSM_LEDS_Process+0x12>
    10a4:	53 c0       	rjmp	.+166    	; 0x114c <FSM_LEDS_Process+0xb8>
    10a6:	b6 c0       	rjmp	.+364    	; 0x1214 <FSM_LEDS_Process+0x180>

		case FSM_LEDS_PGM_STARTUP: {

			if(GetBCMessage(MSG_BC_SYSTEM_STARTUP_COMPLETE)) {
    10a8:	81 e0       	ldi	r24, 0x01	; 1
    10aa:	0e 94 06 0e 	call	0x1c0c	; 0x1c0c <GetBCMessage>
    10ae:	88 23       	and	r24, r24
    10b0:	31 f0       	breq	.+12     	; 0x10be <FSM_LEDS_Process+0x2a>
				// Set next FSM state
				FSM_state = FSM_LEDS_STATE_IDLE;
    10b2:	10 92 b4 01 	sts	0x01B4, r1	; 0x8001b4 <FSM_state>
				// Turn OFF RED LED
				LED_RED_OFF();
    10b6:	2a 98       	cbi	0x05, 2	; 5
				// Turn OFF YELLOW LED
				LED_YELLOW_OFF();
    10b8:	29 98       	cbi	0x05, 1	; 5
				// Turn OFF GREEN LED
				LED_GRN_OFF();
    10ba:	28 98       	cbi	0x05, 0	; 5
				return;
    10bc:	ab c0       	rjmp	.+342    	; 0x1214 <FSM_LEDS_Process+0x180>
			}

			if(GetTimer(TIMER_LEDS) >= LEDS_CHANGE_PERIOD) {
    10be:	88 e0       	ldi	r24, 0x08	; 8
    10c0:	0e 94 6c 0e 	call	0x1cd8	; 0x1cd8 <GetTimer>
    10c4:	84 3f       	cpi	r24, 0xF4	; 244
    10c6:	91 40       	sbci	r25, 0x01	; 1
    10c8:	08 f4       	brcc	.+2      	; 0x10cc <FSM_LEDS_Process+0x38>
    10ca:	a4 c0       	rjmp	.+328    	; 0x1214 <FSM_LEDS_Process+0x180>
				// Change color mechanism
				if(led_bitmap++ > 2) { led_bitmap=1;}
    10cc:	80 91 b3 01 	lds	r24, 0x01B3	; 0x8001b3 <led_bitmap>
    10d0:	83 30       	cpi	r24, 0x03	; 3
    10d2:	20 f4       	brcc	.+8      	; 0x10dc <FSM_LEDS_Process+0x48>
    10d4:	8f 5f       	subi	r24, 0xFF	; 255
    10d6:	80 93 b3 01 	sts	0x01B3, r24	; 0x8001b3 <led_bitmap>
    10da:	02 c0       	rjmp	.+4      	; 0x10e0 <FSM_LEDS_Process+0x4c>
    10dc:	c0 93 b3 01 	sts	0x01B3, r28	; 0x8001b3 <led_bitmap>

				switch(led_bitmap) {
    10e0:	80 91 b3 01 	lds	r24, 0x01B3	; 0x8001b3 <led_bitmap>
    10e4:	82 30       	cpi	r24, 0x02	; 2
    10e6:	31 f0       	breq	.+12     	; 0x10f4 <FSM_LEDS_Process+0x60>
    10e8:	83 30       	cpi	r24, 0x03	; 3
    10ea:	39 f0       	breq	.+14     	; 0x10fa <FSM_LEDS_Process+0x66>
    10ec:	81 30       	cpi	r24, 0x01	; 1
    10ee:	49 f4       	brne	.+18     	; 0x1102 <FSM_LEDS_Process+0x6e>
					// Switch ON RED
					case 1: {
						LED_RED_ON();
    10f0:	2a 9a       	sbi	0x05, 2	; 5
    10f2:	08 c0       	rjmp	.+16     	; 0x1104 <FSM_LEDS_Process+0x70>
						LED_GRN_OFF();
						break;
					}
					// Switch ON YELLOW
					case 2: {
						LED_RED_OFF();
    10f4:	2a 98       	cbi	0x05, 2	; 5
						LED_YELLOW_ON();
    10f6:	29 9a       	sbi	0x05, 1	; 5
    10f8:	06 c0       	rjmp	.+12     	; 0x1106 <FSM_LEDS_Process+0x72>
						LED_GRN_OFF();
						break;
					}
					// Switch ON GREEN
					case 3: {
						LED_RED_OFF();
    10fa:	2a 98       	cbi	0x05, 2	; 5
						LED_YELLOW_OFF();
    10fc:	29 98       	cbi	0x05, 1	; 5
						LED_GRN_ON();
    10fe:	28 9a       	sbi	0x05, 0	; 5
						break;
    1100:	0c c0       	rjmp	.+24     	; 0x111a <FSM_LEDS_Process+0x86>
					}
					// Switch OFF all leds
					default: {
						LED_RED_OFF();
    1102:	2a 98       	cbi	0x05, 2	; 5
						LED_YELLOW_OFF();
    1104:	29 98       	cbi	0x05, 1	; 5
						LED_GRN_OFF();
    1106:	28 98       	cbi	0x05, 0	; 5
						break;
    1108:	08 c0       	rjmp	.+16     	; 0x111a <FSM_LEDS_Process+0x86>
			return;
		}

		case FSM_LEDS_STATE_IDLE: {

			if(GetBCMessage(MSG_BC_SYSTEM_STARTUP_RUN)) {
    110a:	80 e0       	ldi	r24, 0x00	; 0
    110c:	0e 94 06 0e 	call	0x1c0c	; 0x1c0c <GetBCMessage>
    1110:	88 23       	and	r24, r24
    1112:	29 f0       	breq	.+10     	; 0x111e <FSM_LEDS_Process+0x8a>
				// Set next FSM state
				FSM_state = FSM_LEDS_PGM_STARTUP;
    1114:	81 e0       	ldi	r24, 0x01	; 1
    1116:	80 93 b4 01 	sts	0x01B4, r24	; 0x8001b4 <FSM_state>
				// Reset FSM timer
				ResetTimer(TIMER_LEDS);
    111a:	88 e0       	ldi	r24, 0x08	; 8
    111c:	78 c0       	rjmp	.+240    	; 0x120e <FSM_LEDS_Process+0x17a>
				return;
			}

			if(GetMessage(MSG_LEDS_PROCESSING)) {
    111e:	88 e0       	ldi	r24, 0x08	; 8
    1120:	0e 94 df 0d 	call	0x1bbe	; 0x1bbe <GetMessage>
    1124:	88 23       	and	r24, r24
    1126:	09 f4       	brne	.+2      	; 0x112a <FSM_LEDS_Process+0x96>
    1128:	75 c0       	rjmp	.+234    	; 0x1214 <FSM_LEDS_Process+0x180>
				//
				led_params = GetMessageParam(MSG_LEDS_PROCESSING);
    112a:	88 e0       	ldi	r24, 0x08	; 8
    112c:	0e 94 f0 0d 	call	0x1be0	; 0x1be0 <GetMessageParam>
    1130:	90 93 b2 01 	sts	0x01B2, r25	; 0x8001b2 <led_params+0x1>
    1134:	80 93 b1 01 	sts	0x01B1, r24	; 0x8001b1 <led_params>
				//
				led_params->_active = 1;
    1138:	21 e0       	ldi	r18, 0x01	; 1
    113a:	fc 01       	movw	r30, r24
    113c:	20 83       	st	Z, r18
				//
				FSM_state = FSM_LEDS_PGM_PROCESSING;
    113e:	82 e0       	ldi	r24, 0x02	; 2
    1140:	80 93 b4 01 	sts	0x01B4, r24	; 0x8001b4 <FSM_state>
				//
				ResetTimer(TIMER_LEDS);
    1144:	88 e0       	ldi	r24, 0x08	; 8
    1146:	0e 94 75 0e 	call	0x1cea	; 0x1cea <ResetTimer>
    114a:	60 c0       	rjmp	.+192    	; 0x120c <FSM_LEDS_Process+0x178>
		}

		case FSM_LEDS_PGM_PROCESSING: {

			if(
				(led_params->glow_time_ms != 0xFFFF && GetTimer(TIMER_LEDS) >= led_params->glow_time_ms) ||
    114c:	e0 91 b1 01 	lds	r30, 0x01B1	; 0x8001b1 <led_params>
    1150:	f0 91 b2 01 	lds	r31, 0x01B2	; 0x8001b2 <led_params+0x1>
			return;
		}

		case FSM_LEDS_PGM_PROCESSING: {

			if(
    1154:	84 81       	ldd	r24, Z+4	; 0x04
    1156:	95 81       	ldd	r25, Z+5	; 0x05
    1158:	01 96       	adiw	r24, 0x01	; 1
    115a:	31 f4       	brne	.+12     	; 0x1168 <FSM_LEDS_Process+0xd4>
				(led_params->glow_time_ms != 0xFFFF && GetTimer(TIMER_LEDS) >= led_params->glow_time_ms) ||
				GetMessage(MSG_LEDS_TURN_OFF)
    115c:	89 e0       	ldi	r24, 0x09	; 9
    115e:	0e 94 df 0d 	call	0x1bbe	; 0x1bbe <GetMessage>
		}

		case FSM_LEDS_PGM_PROCESSING: {

			if(
				(led_params->glow_time_ms != 0xFFFF && GetTimer(TIMER_LEDS) >= led_params->glow_time_ms) ||
    1162:	88 23       	and	r24, r24
    1164:	99 f0       	breq	.+38     	; 0x118c <FSM_LEDS_Process+0xf8>
    1166:	0c c0       	rjmp	.+24     	; 0x1180 <FSM_LEDS_Process+0xec>
    1168:	88 e0       	ldi	r24, 0x08	; 8
    116a:	0e 94 6c 0e 	call	0x1cd8	; 0x1cd8 <GetTimer>
    116e:	e0 91 b1 01 	lds	r30, 0x01B1	; 0x8001b1 <led_params>
    1172:	f0 91 b2 01 	lds	r31, 0x01B2	; 0x8001b2 <led_params+0x1>
    1176:	24 81       	ldd	r18, Z+4	; 0x04
    1178:	35 81       	ldd	r19, Z+5	; 0x05
    117a:	82 17       	cp	r24, r18
    117c:	93 07       	cpc	r25, r19
    117e:	70 f3       	brcs	.-36     	; 0x115c <FSM_LEDS_Process+0xc8>
				GetMessage(MSG_LEDS_TURN_OFF)
			) {
				//
				LED_RED_OFF();
    1180:	2a 98       	cbi	0x05, 2	; 5
				LED_YELLOW_OFF();
    1182:	29 98       	cbi	0x05, 1	; 5
				LED_GRN_OFF();
    1184:	28 98       	cbi	0x05, 0	; 5
				//
				FSM_state = FSM_LEDS_STATE_IDLE;
    1186:	10 92 b4 01 	sts	0x01B4, r1	; 0x8001b4 <FSM_state>
				return;
    118a:	44 c0       	rjmp	.+136    	; 0x1214 <FSM_LEDS_Process+0x180>
			}


			if(led_params->_active) {
    118c:	e0 91 b1 01 	lds	r30, 0x01B1	; 0x8001b1 <led_params>
    1190:	f0 91 b2 01 	lds	r31, 0x01B2	; 0x8001b2 <led_params+0x1>
    1194:	80 81       	ld	r24, Z
    1196:	88 23       	and	r24, r24
    1198:	19 f1       	breq	.+70     	; 0x11e0 <FSM_LEDS_Process+0x14c>
				switch(led_params->color) {
    119a:	82 81       	ldd	r24, Z+2	; 0x02
    119c:	81 30       	cpi	r24, 0x01	; 1
    119e:	51 f0       	breq	.+20     	; 0x11b4 <FSM_LEDS_Process+0x120>
    11a0:	30 f0       	brcs	.+12     	; 0x11ae <FSM_LEDS_Process+0x11a>
    11a2:	82 30       	cpi	r24, 0x02	; 2
    11a4:	51 f4       	brne	.+20     	; 0x11ba <FSM_LEDS_Process+0x126>
						LED_GRN_OFF();
						break;
					}

					case GREEN: {
						LED_RED_OFF();
    11a6:	2a 98       	cbi	0x05, 2	; 5
						LED_YELLOW_OFF();
    11a8:	29 98       	cbi	0x05, 1	; 5
						LED_GRN_ON();
    11aa:	28 9a       	sbi	0x05, 0	; 5
						break;
    11ac:	06 c0       	rjmp	.+12     	; 0x11ba <FSM_LEDS_Process+0x126>

			if(led_params->_active) {
				switch(led_params->color) {

					case RED: {
						LED_RED_ON();
    11ae:	2a 9a       	sbi	0x05, 2	; 5
						LED_YELLOW_OFF();
    11b0:	29 98       	cbi	0x05, 1	; 5
    11b2:	02 c0       	rjmp	.+4      	; 0x11b8 <FSM_LEDS_Process+0x124>
						LED_GRN_OFF();
						break;
					}

					case YELLOW: {
						LED_RED_OFF();
    11b4:	2a 98       	cbi	0x05, 2	; 5
						LED_YELLOW_ON();
    11b6:	29 9a       	sbi	0x05, 1	; 5
						LED_GRN_OFF();
    11b8:	28 98       	cbi	0x05, 0	; 5
						break;
					}
					default: break;
				}

				if(led_params->_blinking && GetTimer(TIMER_LEDS_BLINK) >= LEDS_TURN_ON_PERIOD) {
    11ba:	e0 91 b1 01 	lds	r30, 0x01B1	; 0x8001b1 <led_params>
    11be:	f0 91 b2 01 	lds	r31, 0x01B2	; 0x8001b2 <led_params+0x1>
    11c2:	81 81       	ldd	r24, Z+1	; 0x01
    11c4:	88 23       	and	r24, r24
    11c6:	31 f1       	breq	.+76     	; 0x1214 <FSM_LEDS_Process+0x180>
    11c8:	89 e0       	ldi	r24, 0x09	; 9
    11ca:	0e 94 6c 0e 	call	0x1cd8	; 0x1cd8 <GetTimer>
    11ce:	84 3f       	cpi	r24, 0xF4	; 244
    11d0:	91 40       	sbci	r25, 0x01	; 1
    11d2:	00 f1       	brcs	.+64     	; 0x1214 <FSM_LEDS_Process+0x180>
					//
					led_params->_active = 0;
    11d4:	e0 91 b1 01 	lds	r30, 0x01B1	; 0x8001b1 <led_params>
    11d8:	f0 91 b2 01 	lds	r31, 0x01B2	; 0x8001b2 <led_params+0x1>
    11dc:	10 82       	st	Z, r1
    11de:	16 c0       	rjmp	.+44     	; 0x120c <FSM_LEDS_Process+0x178>
					ResetTimer(TIMER_LEDS_BLINK);
				}

			} else {
				//
				LED_RED_OFF();
    11e0:	2a 98       	cbi	0x05, 2	; 5
				LED_YELLOW_OFF();
    11e2:	29 98       	cbi	0x05, 1	; 5
				LED_GRN_OFF();
    11e4:	28 98       	cbi	0x05, 0	; 5


				if(led_params->_blinking && GetTimer(TIMER_LEDS_BLINK) >= LEDS_TURN_OFF_PERIOD) {
    11e6:	e0 91 b1 01 	lds	r30, 0x01B1	; 0x8001b1 <led_params>
    11ea:	f0 91 b2 01 	lds	r31, 0x01B2	; 0x8001b2 <led_params+0x1>
    11ee:	81 81       	ldd	r24, Z+1	; 0x01
    11f0:	88 23       	and	r24, r24
    11f2:	81 f0       	breq	.+32     	; 0x1214 <FSM_LEDS_Process+0x180>
    11f4:	89 e0       	ldi	r24, 0x09	; 9
    11f6:	0e 94 6c 0e 	call	0x1cd8	; 0x1cd8 <GetTimer>
    11fa:	84 3f       	cpi	r24, 0xF4	; 244
    11fc:	91 40       	sbci	r25, 0x01	; 1
    11fe:	50 f0       	brcs	.+20     	; 0x1214 <FSM_LEDS_Process+0x180>
					//
					led_params->_active = 1;
    1200:	e0 91 b1 01 	lds	r30, 0x01B1	; 0x8001b1 <led_params>
    1204:	f0 91 b2 01 	lds	r31, 0x01B2	; 0x8001b2 <led_params+0x1>
    1208:	81 e0       	ldi	r24, 0x01	; 1
    120a:	80 83       	st	Z, r24
					//
					ResetTimer(TIMER_LEDS_BLINK);
    120c:	89 e0       	ldi	r24, 0x09	; 9
		}

		default: break;
	}

}
    120e:	cf 91       	pop	r28

				if(led_params->_blinking && GetTimer(TIMER_LEDS_BLINK) >= LEDS_TURN_OFF_PERIOD) {
					//
					led_params->_active = 1;
					//
					ResetTimer(TIMER_LEDS_BLINK);
    1210:	0c 94 75 0e 	jmp	0x1cea	; 0x1cea <ResetTimer>
		}

		default: break;
	}

}
    1214:	cf 91       	pop	r28
    1216:	08 95       	ret

00001218 <FSM_MHZ19B_ReadDataComplete>:
	return calc_crc;
}

void FSM_MHZ19B_ReadDataComplete(void)
{
	SendMessageWOParam(MSG_MHZ19B_DATA_RECEIVED);
    1218:	84 e0       	ldi	r24, 0x04	; 4
    121a:	0c 94 d0 0d 	jmp	0x1ba0	; 0x1ba0 <SendMessageWOParam>

0000121e <FSM_MHZ19B_ReadDataError>:
}

void FSM_MHZ19B_ReadDataError(void)
{
	SendMessageWOParam(MSG_MHZ19B_DATA_RECEIVE_ERROR);
    121e:	85 e0       	ldi	r24, 0x05	; 5
    1220:	0c 94 d0 0d 	jmp	0x1ba0	; 0x1ba0 <SendMessageWOParam>

00001224 <FSM_MHZ19B_Init>:

/* Initialize FSM */
void FSM_MHZ19B_Init(void)
{
	// Flush flags
	mhz19b._presence=0;
    1224:	e8 e9       	ldi	r30, 0x98	; 152
    1226:	f3 e0       	ldi	r31, 0x03	; 3
    1228:	10 82       	st	Z, r1
	mhz19b._error=0;
    122a:	11 82       	std	Z+1, r1	; 0x01
	_first_run=1;
	// Goto initialization FSM
	FSM_state = FSM_MHZ19B_STATE_STARTUP_INIT;
    122c:	81 e0       	ldi	r24, 0x01	; 1
    122e:	80 93 b5 01 	sts	0x01B5, r24	; 0x8001b5 <FSM_state>
    1232:	08 95       	ret

00001234 <FSM_MHZ19B_crc>:
		default: break;
	}
}

uint8_t FSM_MHZ19B_crc(uint8_t *buffer, uint8_t length)
{
    1234:	fc 01       	movw	r30, r24
    1236:	31 96       	adiw	r30, 0x01	; 1
	uint8_t calc_crc=0;
	for(uint8_t i=1; i<length; i++) {
    1238:	91 e0       	ldi	r25, 0x01	; 1
	}
}

uint8_t FSM_MHZ19B_crc(uint8_t *buffer, uint8_t length)
{
	uint8_t calc_crc=0;
    123a:	80 e0       	ldi	r24, 0x00	; 0
	for(uint8_t i=1; i<length; i++) {
    123c:	96 17       	cp	r25, r22
    123e:	20 f4       	brcc	.+8      	; 0x1248 <FSM_MHZ19B_crc+0x14>
		calc_crc += buffer[i];
    1240:	21 91       	ld	r18, Z+
    1242:	82 0f       	add	r24, r18
}

uint8_t FSM_MHZ19B_crc(uint8_t *buffer, uint8_t length)
{
	uint8_t calc_crc=0;
	for(uint8_t i=1; i<length; i++) {
    1244:	9f 5f       	subi	r25, 0xFF	; 255
    1246:	fa cf       	rjmp	.-12     	; 0x123c <FSM_MHZ19B_crc+0x8>
		calc_crc += buffer[i];
	}
	calc_crc = ~calc_crc + 1;
	return calc_crc;
}
    1248:	81 95       	neg	r24
    124a:	08 95       	ret

0000124c <FSM_MHZ19B_Process>:
	FSM_state = FSM_MHZ19B_STATE_STARTUP_INIT;
}

/* Processing FSM */
void FSM_MHZ19B_Process(void)
{
    124c:	cf 92       	push	r12
    124e:	df 92       	push	r13
    1250:	ef 92       	push	r14
    1252:	ff 92       	push	r15
    1254:	0f 93       	push	r16
    1256:	1f 93       	push	r17
    1258:	cf 93       	push	r28
    125a:	df 93       	push	r29
    125c:	cd b7       	in	r28, 0x3d	; 61
    125e:	de b7       	in	r29, 0x3e	; 62
    1260:	29 97       	sbiw	r28, 0x09	; 9
    1262:	0f b6       	in	r0, 0x3f	; 63
    1264:	f8 94       	cli
    1266:	de bf       	out	0x3e, r29	; 62
    1268:	0f be       	out	0x3f, r0	; 63
    126a:	cd bf       	out	0x3d, r28	; 61
	switch(FSM_state) {
    126c:	80 91 b5 01 	lds	r24, 0x01B5	; 0x8001b5 <FSM_state>
    1270:	81 30       	cpi	r24, 0x01	; 1
    1272:	81 f0       	breq	.+32     	; 0x1294 <FSM_MHZ19B_Process+0x48>
    1274:	08 f1       	brcs	.+66     	; 0x12b8 <FSM_MHZ19B_Process+0x6c>
    1276:	83 30       	cpi	r24, 0x03	; 3
    1278:	09 f4       	brne	.+2      	; 0x127c <FSM_MHZ19B_Process+0x30>
    127a:	45 c0       	rjmp	.+138    	; 0x1306 <FSM_MHZ19B_Process+0xba>
    127c:	84 30       	cpi	r24, 0x04	; 4
    127e:	09 f0       	breq	.+2      	; 0x1282 <FSM_MHZ19B_Process+0x36>
    1280:	88 c0       	rjmp	.+272    	; 0x1392 <FSM_MHZ19B_Process+0x146>
    1282:	8e 01       	movw	r16, r28
    1284:	0f 5f       	subi	r16, 0xFF	; 255
    1286:	1f 4f       	sbci	r17, 0xFF	; 255
    1288:	6e 01       	movw	r12, r28
    128a:	89 e0       	ldi	r24, 0x09	; 9
    128c:	c8 0e       	add	r12, r24
    128e:	d1 1c       	adc	r13, r1
    1290:	78 01       	movw	r14, r16
    1292:	5a c0       	rjmp	.+180    	; 0x1348 <FSM_MHZ19B_Process+0xfc>
		/* Send initialization command to the MH-Z19B */
		case FSM_MHZ19B_STATE_STARTUP_INIT: {
			UART_RX_INTERRUPT_DISABLE();
    1294:	80 91 c1 00 	lds	r24, 0x00C1	; 0x8000c1 <__TEXT_REGION_LENGTH__+0x7e00c1>
    1298:	8f 76       	andi	r24, 0x6F	; 111
    129a:	80 93 c1 00 	sts	0x00C1, r24	; 0x8000c1 <__TEXT_REGION_LENGTH__+0x7e00c1>
			// Sending set range CMD to the sensor
			UART_SendDataFromFlash(cmd_set_range, 9);
    129e:	69 e0       	ldi	r22, 0x09	; 9
    12a0:	82 ea       	ldi	r24, 0xA2	; 162
    12a2:	90 e0       	ldi	r25, 0x00	; 0
    12a4:	0e 94 ad 03 	call	0x75a	; 0x75a <UART_SendDataFromFlash>
			// Sending ABC calibration settings to the sensor
			UART_SendDataFromFlash(cmd_set_abc, 9);
    12a8:	69 e0       	ldi	r22, 0x09	; 9
    12aa:	89 e9       	ldi	r24, 0x99	; 153
    12ac:	90 e0       	ldi	r25, 0x00	; 0
    12ae:	0e 94 ad 03 	call	0x75a	; 0x75a <UART_SendDataFromFlash>
			// Goto waiting timeout before other actions
			FSM_state = FSM_MHZ19B_STATE_IDLE;
    12b2:	10 92 b5 01 	sts	0x01B5, r1	; 0x8001b5 <FSM_state>
    12b6:	16 c0       	rjmp	.+44     	; 0x12e4 <FSM_MHZ19B_Process+0x98>
			return;
		}
		/* Main state */
		case FSM_MHZ19B_STATE_IDLE: {
			/* Prepare read data from MH-Z19B by first run or timeout 20s */
			if(GetTimer(TIMER_MHZ19B) > MHZ19B_REFRESH_PERIOD) {
    12b8:	85 e0       	ldi	r24, 0x05	; 5
    12ba:	0e 94 6c 0e 	call	0x1cd8	; 0x1cd8 <GetTimer>
    12be:	81 32       	cpi	r24, 0x21	; 33
    12c0:	9e 44       	sbci	r25, 0x4E	; 78
    12c2:	08 f4       	brcc	.+2      	; 0x12c6 <FSM_MHZ19B_Process+0x7a>
    12c4:	66 c0       	rjmp	.+204    	; 0x1392 <FSM_MHZ19B_Process+0x146>
				// Get data command for MH-Z19B
				UART_SendDataFromFlash(cmd_get_data, 9);
    12c6:	69 e0       	ldi	r22, 0x09	; 9
    12c8:	80 e9       	ldi	r24, 0x90	; 144
    12ca:	90 e0       	ldi	r25, 0x00	; 0
    12cc:	0e 94 ad 03 	call	0x75a	; 0x75a <UART_SendDataFromFlash>
				// Setup data length and process handlers
				UART_DefferedReadData(9, &FSM_MHZ19B_ReadDataComplete, &FSM_MHZ19B_ReadDataError);
    12d0:	4f e0       	ldi	r20, 0x0F	; 15
    12d2:	59 e0       	ldi	r21, 0x09	; 9
    12d4:	6c e0       	ldi	r22, 0x0C	; 12
    12d6:	79 e0       	ldi	r23, 0x09	; 9
    12d8:	89 e0       	ldi	r24, 0x09	; 9
    12da:	0e 94 53 04 	call	0x8a6	; 0x8a6 <UART_DefferedReadData>
				// Goto waiting data from MH-Z19B
				FSM_state = FSM_MHZ19B_STATE_GET_DATA;
    12de:	83 e0       	ldi	r24, 0x03	; 3
    12e0:	80 93 b5 01 	sts	0x01B5, r24	; 0x8001b5 <FSM_state>
				ResetTimer(TIMER_MHZ19B);
    12e4:	85 e0       	ldi	r24, 0x05	; 5
			FSM_state = FSM_MHZ19B_STATE_IDLE;
			return;
		}
		default: break;
	}
}
    12e6:	29 96       	adiw	r28, 0x09	; 9
    12e8:	0f b6       	in	r0, 0x3f	; 63
    12ea:	f8 94       	cli
    12ec:	de bf       	out	0x3e, r29	; 62
    12ee:	0f be       	out	0x3f, r0	; 63
    12f0:	cd bf       	out	0x3d, r28	; 61
    12f2:	df 91       	pop	r29
    12f4:	cf 91       	pop	r28
    12f6:	1f 91       	pop	r17
    12f8:	0f 91       	pop	r16
    12fa:	ff 90       	pop	r15
    12fc:	ef 90       	pop	r14
    12fe:	df 90       	pop	r13
    1300:	cf 90       	pop	r12
				UART_SendDataFromFlash(cmd_get_data, 9);
				// Setup data length and process handlers
				UART_DefferedReadData(9, &FSM_MHZ19B_ReadDataComplete, &FSM_MHZ19B_ReadDataError);
				// Goto waiting data from MH-Z19B
				FSM_state = FSM_MHZ19B_STATE_GET_DATA;
				ResetTimer(TIMER_MHZ19B);
    1302:	0c 94 75 0e 	jmp	0x1cea	; 0x1cea <ResetTimer>
		}

		/* Waiting data and processing */
		case FSM_MHZ19B_STATE_GET_DATA: {
			// Data was received without errors
			if(GetMessage(MSG_MHZ19B_DATA_RECEIVED)) {
    1306:	84 e0       	ldi	r24, 0x04	; 4
    1308:	0e 94 df 0d 	call	0x1bbe	; 0x1bbe <GetMessage>
    130c:	88 23       	and	r24, r24
    130e:	31 f0       	breq	.+12     	; 0x131c <FSM_MHZ19B_Process+0xd0>
				// Flush error flag
				mhz19b._error=0;
    1310:	10 92 99 03 	sts	0x0399, r1	; 0x800399 <mhz19b+0x1>
				// Goto data processing state
				FSM_state = FSM_MHZ19B_STATE_PROCESSING_DATA;
    1314:	84 e0       	ldi	r24, 0x04	; 4
    1316:	80 93 b5 01 	sts	0x01B5, r24	; 0x8001b5 <FSM_state>
				return;
    131a:	3b c0       	rjmp	.+118    	; 0x1392 <FSM_MHZ19B_Process+0x146>
			}
			// Data was not received correctly
			if(GetMessage(MSG_MHZ19B_DATA_RECEIVE_ERROR)) {
    131c:	85 e0       	ldi	r24, 0x05	; 5
    131e:	0e 94 df 0d 	call	0x1bbe	; 0x1bbe <GetMessage>
    1322:	88 23       	and	r24, r24
    1324:	41 f0       	breq	.+16     	; 0x1336 <FSM_MHZ19B_Process+0xea>
				// Set error flag
				mhz19b._error=1;
    1326:	81 e0       	ldi	r24, 0x01	; 1
    1328:	80 93 99 03 	sts	0x0399, r24	; 0x800399 <mhz19b+0x1>
				// Set error handle - DATA CORRUPT
				mhz19b.error=MHZ19B_ERROR_DATA_CORRUPT;
    132c:	82 e0       	ldi	r24, 0x02	; 2
    132e:	80 93 9a 03 	sts	0x039A, r24	; 0x80039a <mhz19b+0x2>
				FSM_state = FSM_MHZ19B_STATE_IDLE;
    1332:	10 92 b5 01 	sts	0x01B5, r1	; 0x8001b5 <FSM_state>
			}
			// Data was not received to the timeout end
			if(GetTimer(TIMER_MHZ19B) > MHZ19B_REFRESH_TIMEOUT) {
    1336:	85 e0       	ldi	r24, 0x05	; 5
    1338:	0e 94 6c 0e 	call	0x1cd8	; 0x1cd8 <GetTimer>
    133c:	c3 97       	sbiw	r24, 0x33	; 51
    133e:	48 f1       	brcs	.+82     	; 0x1392 <FSM_MHZ19B_Process+0x146>
				// Set error flag
				mhz19b._error=1;
    1340:	81 e0       	ldi	r24, 0x01	; 1
    1342:	80 93 99 03 	sts	0x0399, r24	; 0x800399 <mhz19b+0x1>
    1346:	15 c0       	rjmp	.+42     	; 0x1372 <FSM_MHZ19B_Process+0x126>
		case FSM_MHZ19B_STATE_PROCESSING_DATA: {
			uint8_t buff[9];
			uint8_t curr_crc;
			// Copy received data to temporary buffer
			for(uint8_t i=0; i<8; i++) {
				buff[i] = UART_Read();
    1348:	0e 94 42 04 	call	0x884	; 0x884 <UART_Read>
    134c:	f8 01       	movw	r30, r16
    134e:	81 93       	st	Z+, r24
    1350:	8f 01       	movw	r16, r30
		/* Processing received data */
		case FSM_MHZ19B_STATE_PROCESSING_DATA: {
			uint8_t buff[9];
			uint8_t curr_crc;
			// Copy received data to temporary buffer
			for(uint8_t i=0; i<8; i++) {
    1352:	ec 15       	cp	r30, r12
    1354:	fd 05       	cpc	r31, r13
    1356:	c1 f7       	brne	.-16     	; 0x1348 <FSM_MHZ19B_Process+0xfc>
				buff[i] = UART_Read();
			}
			curr_crc = UART_Read();
    1358:	0e 94 42 04 	call	0x884	; 0x884 <UART_Read>
    135c:	18 2f       	mov	r17, r24
			// Check CRC match
			if(curr_crc != FSM_MHZ19B_crc(buff, 8)) {
    135e:	68 e0       	ldi	r22, 0x08	; 8
    1360:	c7 01       	movw	r24, r14
    1362:	0e 94 1a 09 	call	0x1234	; 0x1234 <FSM_MHZ19B_crc>
    1366:	18 17       	cp	r17, r24
    1368:	39 f0       	breq	.+14     	; 0x1378 <FSM_MHZ19B_Process+0x12c>
				// Set error flag
				mhz19b._error=1;
    136a:	81 e0       	ldi	r24, 0x01	; 1
    136c:	80 93 99 03 	sts	0x0399, r24	; 0x800399 <mhz19b+0x1>
				// Set error handle - CRC ERROR
				mhz19b.error=MHZ19B_ERROR_CRC;
    1370:	84 e0       	ldi	r24, 0x04	; 4
    1372:	80 93 9a 03 	sts	0x039A, r24	; 0x80039a <mhz19b+0x2>
    1376:	0b c0       	rjmp	.+22     	; 0x138e <FSM_MHZ19B_Process+0x142>
				FSM_state = FSM_MHZ19B_STATE_IDLE;
				return;
			}
			// Get sensor value
			mhz19b.value = ((buff[2]<<8) + buff[3]);
    1378:	8b 81       	ldd	r24, Y+3	; 0x03
    137a:	90 e0       	ldi	r25, 0x00	; 0
    137c:	98 2f       	mov	r25, r24
    137e:	88 27       	eor	r24, r24
    1380:	2c 81       	ldd	r18, Y+4	; 0x04
    1382:	82 0f       	add	r24, r18
    1384:	91 1d       	adc	r25, r1
    1386:	90 93 9c 03 	sts	0x039C, r25	; 0x80039c <mhz19b+0x4>
    138a:	80 93 9b 03 	sts	0x039B, r24	; 0x80039b <mhz19b+0x3>
			FSM_state = FSM_MHZ19B_STATE_IDLE;
    138e:	10 92 b5 01 	sts	0x01B5, r1	; 0x8001b5 <FSM_state>
			return;
		}
		default: break;
	}
}
    1392:	29 96       	adiw	r28, 0x09	; 9
    1394:	0f b6       	in	r0, 0x3f	; 63
    1396:	f8 94       	cli
    1398:	de bf       	out	0x3e, r29	; 62
    139a:	0f be       	out	0x3f, r0	; 63
    139c:	cd bf       	out	0x3d, r28	; 61
    139e:	df 91       	pop	r29
    13a0:	cf 91       	pop	r28
    13a2:	1f 91       	pop	r17
    13a4:	0f 91       	pop	r16
    13a6:	ff 90       	pop	r15
    13a8:	ef 90       	pop	r14
    13aa:	df 90       	pop	r13
    13ac:	cf 90       	pop	r12
    13ae:	08 95       	ret

000013b0 <FSM_PCF8574_Init>:

/* Add char from flash to LCD */
void FSM_PCF8574_AddRAWCharFromFlash(const char *chr)
{
	char c = pgm_read_byte(*chr);
	FSM_PCF8574_AddRAWChar(c);
    13b0:	81 e0       	ldi	r24, 0x01	; 1
    13b2:	80 93 ba 01 	sts	0x01BA, r24	; 0x8001ba <FSM_state>
    13b6:	0c 94 75 0e 	jmp	0x1cea	; 0x1cea <ResetTimer>

000013ba <FSM_PCF8574_AddByteToQueue>:
    13ba:	90 91 4a 02 	lds	r25, 0x024A	; 0x80024a <pcf8574+0x4>
    13be:	90 3a       	cpi	r25, 0xA0	; 160
    13c0:	38 f5       	brcc	.+78     	; 0x1410 <FSM_PCF8574_AddByteToQueue+0x56>
    13c2:	5f b7       	in	r21, 0x3f	; 63
    13c4:	f8 94       	cli
    13c6:	90 91 48 02 	lds	r25, 0x0248	; 0x800248 <pcf8574+0x2>
    13ca:	30 91 4a 02 	lds	r19, 0x024A	; 0x80024a <pcf8574+0x4>
    13ce:	e9 2f       	mov	r30, r25
    13d0:	f0 e0       	ldi	r31, 0x00	; 0
    13d2:	df 01       	movw	r26, r30
    13d4:	aa 0f       	add	r26, r26
    13d6:	bb 1f       	adc	r27, r27
    13d8:	aa 5b       	subi	r26, 0xBA	; 186
    13da:	bd 4f       	sbci	r27, 0xFD	; 253
    13dc:	15 96       	adiw	r26, 0x05	; 5
    13de:	8c 93       	st	X, r24
    13e0:	ee 0f       	add	r30, r30
    13e2:	ff 1f       	adc	r31, r31
    13e4:	e4 5b       	subi	r30, 0xB4	; 180
    13e6:	fd 4f       	sbci	r31, 0xFD	; 253
    13e8:	46 2b       	or	r20, r22
    13ea:	2f 73       	andi	r18, 0x3F	; 63
    13ec:	42 2b       	or	r20, r18
    13ee:	40 83       	st	Z, r20
    13f0:	81 e0       	ldi	r24, 0x01	; 1
    13f2:	83 0f       	add	r24, r19
    13f4:	90 3a       	cpi	r25, 0xA0	; 160
    13f6:	38 f4       	brcc	.+14     	; 0x1406 <FSM_PCF8574_AddByteToQueue+0x4c>
    13f8:	80 93 4a 02 	sts	0x024A, r24	; 0x80024a <pcf8574+0x4>
    13fc:	9f 5f       	subi	r25, 0xFF	; 255
    13fe:	90 93 48 02 	sts	0x0248, r25	; 0x800248 <pcf8574+0x2>
    1402:	5f bf       	out	0x3f, r21	; 63
    1404:	08 95       	ret
    1406:	10 92 48 02 	sts	0x0248, r1	; 0x800248 <pcf8574+0x2>
    140a:	80 93 4a 02 	sts	0x024A, r24	; 0x80024a <pcf8574+0x4>
    140e:	f9 cf       	rjmp	.-14     	; 0x1402 <FSM_PCF8574_AddByteToQueue+0x48>
    1410:	08 95       	ret

00001412 <FSM_PCF8574_Process>:
    1412:	0f 93       	push	r16
    1414:	1f 93       	push	r17
    1416:	cf 93       	push	r28
    1418:	df 93       	push	r29
    141a:	00 d0       	rcall	.+0      	; 0x141c <FSM_PCF8574_Process+0xa>
    141c:	00 d0       	rcall	.+0      	; 0x141e <FSM_PCF8574_Process+0xc>
    141e:	cd b7       	in	r28, 0x3d	; 61
    1420:	de b7       	in	r29, 0x3e	; 62
    1422:	80 91 ba 01 	lds	r24, 0x01BA	; 0x8001ba <FSM_state>
    1426:	81 30       	cpi	r24, 0x01	; 1
    1428:	09 f4       	brne	.+2      	; 0x142c <FSM_PCF8574_Process+0x1a>
    142a:	92 c0       	rjmp	.+292    	; 0x1550 <FSM_PCF8574_Process+0x13e>
    142c:	30 f0       	brcs	.+12     	; 0x143a <FSM_PCF8574_Process+0x28>
    142e:	82 30       	cpi	r24, 0x02	; 2
    1430:	61 f0       	breq	.+24     	; 0x144a <FSM_PCF8574_Process+0x38>
    1432:	83 30       	cpi	r24, 0x03	; 3
    1434:	09 f4       	brne	.+2      	; 0x1438 <FSM_PCF8574_Process+0x26>
    1436:	58 c0       	rjmp	.+176    	; 0x14e8 <FSM_PCF8574_Process+0xd6>
    1438:	da c0       	rjmp	.+436    	; 0x15ee <FSM_PCF8574_Process+0x1dc>
    143a:	80 91 4a 02 	lds	r24, 0x024A	; 0x80024a <pcf8574+0x4>
    143e:	88 23       	and	r24, r24
    1440:	09 f4       	brne	.+2      	; 0x1444 <FSM_PCF8574_Process+0x32>
    1442:	d5 c0       	rjmp	.+426    	; 0x15ee <FSM_PCF8574_Process+0x1dc>
    1444:	10 92 b8 01 	sts	0x01B8, r1	; 0x8001b8 <pcf8574_byte+0x2>
    1448:	81 c0       	rjmp	.+258    	; 0x154c <FSM_PCF8574_Process+0x13a>
    144a:	80 91 e7 01 	lds	r24, 0x01E7	; 0x8001e7 <i2c>
    144e:	88 23       	and	r24, r24
    1450:	21 f0       	breq	.+8      	; 0x145a <FSM_PCF8574_Process+0x48>
    1452:	81 e0       	ldi	r24, 0x01	; 1
    1454:	0e 94 75 0e 	call	0x1cea	; 0x1cea <ResetTimer>
    1458:	ca c0       	rjmp	.+404    	; 0x15ee <FSM_PCF8574_Process+0x1dc>
    145a:	80 91 b8 01 	lds	r24, 0x01B8	; 0x8001b8 <pcf8574_byte+0x2>
    145e:	81 11       	cpse	r24, r1
    1460:	05 c0       	rjmp	.+10     	; 0x146c <FSM_PCF8574_Process+0x5a>
    1462:	80 91 4a 02 	lds	r24, 0x024A	; 0x80024a <pcf8574+0x4>
    1466:	81 11       	cpse	r24, r1
    1468:	0b c0       	rjmp	.+22     	; 0x1480 <FSM_PCF8574_Process+0x6e>
    146a:	39 c0       	rjmp	.+114    	; 0x14de <FSM_PCF8574_Process+0xcc>
    146c:	81 e0       	ldi	r24, 0x01	; 1
    146e:	0e 94 6c 0e 	call	0x1cd8	; 0x1cd8 <GetTimer>
    1472:	20 91 b8 01 	lds	r18, 0x01B8	; 0x8001b8 <pcf8574_byte+0x2>
    1476:	30 e0       	ldi	r19, 0x00	; 0
    1478:	28 17       	cp	r18, r24
    147a:	39 07       	cpc	r19, r25
    147c:	90 f3       	brcs	.-28     	; 0x1462 <FSM_PCF8574_Process+0x50>
    147e:	b7 c0       	rjmp	.+366    	; 0x15ee <FSM_PCF8574_Process+0x1dc>
    1480:	81 50       	subi	r24, 0x01	; 1
    1482:	80 93 4a 02 	sts	0x024A, r24	; 0x80024a <pcf8574+0x4>
    1486:	20 91 49 02 	lds	r18, 0x0249	; 0x800249 <pcf8574+0x3>
    148a:	82 2f       	mov	r24, r18
    148c:	90 e0       	ldi	r25, 0x00	; 0
    148e:	fc 01       	movw	r30, r24
    1490:	ee 0f       	add	r30, r30
    1492:	ff 1f       	adc	r31, r31
    1494:	e4 5b       	subi	r30, 0xB4	; 180
    1496:	fd 4f       	sbci	r31, 0xFD	; 253
    1498:	30 81       	ld	r19, Z
    149a:	43 2f       	mov	r20, r19
    149c:	40 78       	andi	r20, 0x80	; 128
    149e:	40 93 b7 01 	sts	0x01B7, r20	; 0x8001b7 <pcf8574_byte+0x1>
    14a2:	43 2f       	mov	r20, r19
    14a4:	40 74       	andi	r20, 0x40	; 64
    14a6:	40 93 b6 01 	sts	0x01B6, r20	; 0x8001b6 <pcf8574_byte>
    14aa:	3f 73       	andi	r19, 0x3F	; 63
    14ac:	30 93 b8 01 	sts	0x01B8, r19	; 0x8001b8 <pcf8574_byte+0x2>
    14b0:	88 0f       	add	r24, r24
    14b2:	99 1f       	adc	r25, r25
    14b4:	fc 01       	movw	r30, r24
    14b6:	ea 5b       	subi	r30, 0xBA	; 186
    14b8:	fd 4f       	sbci	r31, 0xFD	; 253
    14ba:	85 81       	ldd	r24, Z+5	; 0x05
    14bc:	80 93 b9 01 	sts	0x01B9, r24	; 0x8001b9 <pcf8574_byte+0x3>
    14c0:	20 3a       	cpi	r18, 0xA0	; 160
    14c2:	20 f4       	brcc	.+8      	; 0x14cc <FSM_PCF8574_Process+0xba>
    14c4:	2f 5f       	subi	r18, 0xFF	; 255
    14c6:	20 93 49 02 	sts	0x0249, r18	; 0x800249 <pcf8574+0x3>
    14ca:	02 c0       	rjmp	.+4      	; 0x14d0 <FSM_PCF8574_Process+0xbe>
    14cc:	10 92 49 02 	sts	0x0249, r1	; 0x800249 <pcf8574+0x3>
    14d0:	81 e0       	ldi	r24, 0x01	; 1
    14d2:	80 93 46 02 	sts	0x0246, r24	; 0x800246 <pcf8574>
    14d6:	83 e0       	ldi	r24, 0x03	; 3
    14d8:	80 93 ba 01 	sts	0x01BA, r24	; 0x8001ba <FSM_state>
    14dc:	88 c0       	rjmp	.+272    	; 0x15ee <FSM_PCF8574_Process+0x1dc>
    14de:	10 92 46 02 	sts	0x0246, r1	; 0x800246 <pcf8574>
    14e2:	10 92 ba 01 	sts	0x01BA, r1	; 0x8001ba <FSM_state>
    14e6:	83 c0       	rjmp	.+262    	; 0x15ee <FSM_PCF8574_Process+0x1dc>
    14e8:	80 91 e7 01 	lds	r24, 0x01E7	; 0x8001e7 <i2c>
    14ec:	81 11       	cpse	r24, r1
    14ee:	7f c0       	rjmp	.+254    	; 0x15ee <FSM_PCF8574_Process+0x1dc>
    14f0:	50 91 b6 01 	lds	r21, 0x01B6	; 0x8001b6 <pcf8574_byte>
    14f4:	80 91 b9 01 	lds	r24, 0x01B9	; 0x8001b9 <pcf8574_byte+0x3>
    14f8:	68 2f       	mov	r22, r24
    14fa:	62 95       	swap	r22
    14fc:	60 7f       	andi	r22, 0xF0	; 240
    14fe:	28 2f       	mov	r18, r24
    1500:	20 7f       	andi	r18, 0xF0	; 240
    1502:	70 91 b7 01 	lds	r23, 0x01B7	; 0x8001b7 <pcf8574_byte+0x1>
    1506:	fe 01       	movw	r30, r28
    1508:	31 96       	adiw	r30, 0x01	; 1
    150a:	40 e0       	ldi	r20, 0x00	; 0
    150c:	cf 01       	movw	r24, r30
    150e:	55 23       	and	r21, r21
    1510:	11 f0       	breq	.+4      	; 0x1516 <FSM_PCF8574_Process+0x104>
    1512:	42 30       	cpi	r20, 0x02	; 2
    1514:	a9 f0       	breq	.+42     	; 0x1540 <FSM_PCF8574_Process+0x12e>
    1516:	3e ef       	ldi	r19, 0xFE	; 254
    1518:	34 0f       	add	r19, r20
    151a:	32 30       	cpi	r19, 0x02	; 2
    151c:	10 f0       	brcs	.+4      	; 0x1522 <FSM_PCF8574_Process+0x110>
    151e:	20 83       	st	Z, r18
    1520:	01 c0       	rjmp	.+2      	; 0x1524 <FSM_PCF8574_Process+0x112>
    1522:	60 83       	st	Z, r22
    1524:	70 38       	cpi	r23, 0x80	; 128
    1526:	19 f4       	brne	.+6      	; 0x152e <FSM_PCF8574_Process+0x11c>
    1528:	30 81       	ld	r19, Z
    152a:	31 60       	ori	r19, 0x01	; 1
    152c:	30 83       	st	Z, r19
    152e:	40 fd       	sbrc	r20, 0
    1530:	03 c0       	rjmp	.+6      	; 0x1538 <FSM_PCF8574_Process+0x126>
    1532:	30 81       	ld	r19, Z
    1534:	32 60       	ori	r19, 0x02	; 2
    1536:	30 83       	st	Z, r19
    1538:	4f 5f       	subi	r20, 0xFF	; 255
    153a:	31 96       	adiw	r30, 0x01	; 1
    153c:	44 30       	cpi	r20, 0x04	; 4
    153e:	39 f7       	brne	.-50     	; 0x150e <FSM_PCF8574_Process+0xfc>
    1540:	00 e0       	ldi	r16, 0x00	; 0
    1542:	10 e0       	ldi	r17, 0x00	; 0
    1544:	20 e0       	ldi	r18, 0x00	; 0
    1546:	60 e4       	ldi	r22, 0x40	; 64
    1548:	0e 94 5a 03 	call	0x6b4	; 0x6b4 <I2C_TransmitTo>
    154c:	82 e0       	ldi	r24, 0x02	; 2
    154e:	c4 cf       	rjmp	.-120    	; 0x14d8 <FSM_PCF8574_Process+0xc6>
    1550:	81 e0       	ldi	r24, 0x01	; 1
    1552:	0e 94 6c 0e 	call	0x1cd8	; 0x1cd8 <GetTimer>
    1556:	80 35       	cpi	r24, 0x50	; 80
    1558:	91 05       	cpc	r25, r1
    155a:	08 f4       	brcc	.+2      	; 0x155e <FSM_PCF8574_Process+0x14c>
    155c:	48 c0       	rjmp	.+144    	; 0x15ee <FSM_PCF8574_Process+0x1dc>
    155e:	8f b7       	in	r24, 0x3f	; 63
    1560:	f8 94       	cli
    1562:	e6 e4       	ldi	r30, 0x46	; 70
    1564:	f2 e0       	ldi	r31, 0x02	; 2
    1566:	26 e8       	ldi	r18, 0x86	; 134
    1568:	33 e0       	ldi	r19, 0x03	; 3
    156a:	15 82       	std	Z+5, r1	; 0x05
    156c:	16 82       	std	Z+6, r1	; 0x06
    156e:	32 96       	adiw	r30, 0x02	; 2
    1570:	2e 17       	cp	r18, r30
    1572:	3f 07       	cpc	r19, r31
    1574:	d1 f7       	brne	.-12     	; 0x156a <FSM_PCF8574_Process+0x158>
    1576:	8f bf       	out	0x3f, r24	; 63
    1578:	24 e1       	ldi	r18, 0x14	; 20
    157a:	40 e4       	ldi	r20, 0x40	; 64
    157c:	60 e0       	ldi	r22, 0x00	; 0
    157e:	80 e3       	ldi	r24, 0x30	; 48
    1580:	0e 94 dd 09 	call	0x13ba	; 0x13ba <FSM_PCF8574_AddByteToQueue>
    1584:	25 e0       	ldi	r18, 0x05	; 5
    1586:	40 e4       	ldi	r20, 0x40	; 64
    1588:	60 e0       	ldi	r22, 0x00	; 0
    158a:	80 e3       	ldi	r24, 0x30	; 48
    158c:	0e 94 dd 09 	call	0x13ba	; 0x13ba <FSM_PCF8574_AddByteToQueue>
    1590:	21 e0       	ldi	r18, 0x01	; 1
    1592:	40 e4       	ldi	r20, 0x40	; 64
    1594:	60 e0       	ldi	r22, 0x00	; 0
    1596:	80 e3       	ldi	r24, 0x30	; 48
    1598:	0e 94 dd 09 	call	0x13ba	; 0x13ba <FSM_PCF8574_AddByteToQueue>
    159c:	20 e0       	ldi	r18, 0x00	; 0
    159e:	40 e4       	ldi	r20, 0x40	; 64
    15a0:	60 e0       	ldi	r22, 0x00	; 0
    15a2:	80 e2       	ldi	r24, 0x20	; 32
    15a4:	0e 94 dd 09 	call	0x13ba	; 0x13ba <FSM_PCF8574_AddByteToQueue>
    15a8:	20 e0       	ldi	r18, 0x00	; 0
    15aa:	40 e0       	ldi	r20, 0x00	; 0
    15ac:	60 e0       	ldi	r22, 0x00	; 0
    15ae:	88 e2       	ldi	r24, 0x28	; 40
    15b0:	0e 94 dd 09 	call	0x13ba	; 0x13ba <FSM_PCF8574_AddByteToQueue>
    15b4:	20 e0       	ldi	r18, 0x00	; 0
    15b6:	40 e0       	ldi	r20, 0x00	; 0
    15b8:	60 e0       	ldi	r22, 0x00	; 0
    15ba:	88 e0       	ldi	r24, 0x08	; 8
    15bc:	0e 94 dd 09 	call	0x13ba	; 0x13ba <FSM_PCF8574_AddByteToQueue>
    15c0:	22 e0       	ldi	r18, 0x02	; 2
    15c2:	40 e0       	ldi	r20, 0x00	; 0
    15c4:	60 e0       	ldi	r22, 0x00	; 0
    15c6:	81 e0       	ldi	r24, 0x01	; 1
    15c8:	0e 94 dd 09 	call	0x13ba	; 0x13ba <FSM_PCF8574_AddByteToQueue>
    15cc:	20 e0       	ldi	r18, 0x00	; 0
    15ce:	40 e0       	ldi	r20, 0x00	; 0
    15d0:	60 e0       	ldi	r22, 0x00	; 0
    15d2:	8c e0       	ldi	r24, 0x0C	; 12
    15d4:	0e 94 dd 09 	call	0x13ba	; 0x13ba <FSM_PCF8574_AddByteToQueue>
    15d8:	20 e0       	ldi	r18, 0x00	; 0
    15da:	40 e0       	ldi	r20, 0x00	; 0
    15dc:	60 e0       	ldi	r22, 0x00	; 0
    15de:	86 e0       	ldi	r24, 0x06	; 6
    15e0:	0e 94 dd 09 	call	0x13ba	; 0x13ba <FSM_PCF8574_AddByteToQueue>
    15e4:	10 92 ba 01 	sts	0x01BA, r1	; 0x8001ba <FSM_state>
    15e8:	82 e0       	ldi	r24, 0x02	; 2
    15ea:	0e 94 fc 0d 	call	0x1bf8	; 0x1bf8 <SendBCMessage>
    15ee:	0f 90       	pop	r0
    15f0:	0f 90       	pop	r0
    15f2:	0f 90       	pop	r0
    15f4:	0f 90       	pop	r0
    15f6:	df 91       	pop	r29
    15f8:	cf 91       	pop	r28
    15fa:	1f 91       	pop	r17
    15fc:	0f 91       	pop	r16
    15fe:	08 95       	ret

00001600 <FSM_PCF8574_CreateCharacterFromFlash>:
    1600:	0f 93       	push	r16
    1602:	1f 93       	push	r17
    1604:	cf 93       	push	r28
    1606:	df 93       	push	r29
    1608:	eb 01       	movw	r28, r22
    160a:	28 e0       	ldi	r18, 0x08	; 8
    160c:	82 9f       	mul	r24, r18
    160e:	c0 01       	movw	r24, r0
    1610:	11 24       	eor	r1, r1
    1612:	20 e0       	ldi	r18, 0x00	; 0
    1614:	40 e0       	ldi	r20, 0x00	; 0
    1616:	60 e0       	ldi	r22, 0x00	; 0
    1618:	80 64       	ori	r24, 0x40	; 64
    161a:	0e 94 dd 09 	call	0x13ba	; 0x13ba <FSM_PCF8574_AddByteToQueue>
    161e:	8e 01       	movw	r16, r28
    1620:	08 5f       	subi	r16, 0xF8	; 248
    1622:	1f 4f       	sbci	r17, 0xFF	; 255
    1624:	fe 01       	movw	r30, r28
    1626:	84 91       	lpm	r24, Z
    1628:	20 e0       	ldi	r18, 0x00	; 0
    162a:	40 e0       	ldi	r20, 0x00	; 0
    162c:	60 e8       	ldi	r22, 0x80	; 128
    162e:	0e 94 dd 09 	call	0x13ba	; 0x13ba <FSM_PCF8574_AddByteToQueue>
    1632:	21 96       	adiw	r28, 0x01	; 1
    1634:	c0 17       	cp	r28, r16
    1636:	d1 07       	cpc	r29, r17
    1638:	a9 f7       	brne	.-22     	; 0x1624 <FSM_PCF8574_CreateCharacterFromFlash+0x24>
    163a:	20 e0       	ldi	r18, 0x00	; 0
    163c:	40 e0       	ldi	r20, 0x00	; 0
    163e:	60 e0       	ldi	r22, 0x00	; 0
    1640:	80 e8       	ldi	r24, 0x80	; 128
    1642:	df 91       	pop	r29
    1644:	cf 91       	pop	r28
    1646:	1f 91       	pop	r17
    1648:	0f 91       	pop	r16
    164a:	0c 94 dd 09 	jmp	0x13ba	; 0x13ba <FSM_PCF8574_AddByteToQueue>

0000164e <FSM_PCF8574_GoToXY>:
    164e:	cf 93       	push	r28
    1650:	c8 2f       	mov	r28, r24
    1652:	80 ff       	sbrs	r24, 0
    1654:	02 c0       	rjmp	.+4      	; 0x165a <FSM_PCF8574_GoToXY+0xc>
    1656:	80 e4       	ldi	r24, 0x40	; 64
    1658:	01 c0       	rjmp	.+2      	; 0x165c <FSM_PCF8574_GoToXY+0xe>
    165a:	80 e0       	ldi	r24, 0x00	; 0
    165c:	c2 30       	cpi	r28, 0x02	; 2
    165e:	08 f0       	brcs	.+2      	; 0x1662 <FSM_PCF8574_GoToXY+0x14>
    1660:	8c 5e       	subi	r24, 0xEC	; 236
    1662:	86 0f       	add	r24, r22
    1664:	21 e0       	ldi	r18, 0x01	; 1
    1666:	40 e0       	ldi	r20, 0x00	; 0
    1668:	60 e0       	ldi	r22, 0x00	; 0
    166a:	80 68       	ori	r24, 0x80	; 128
    166c:	0e 94 dd 09 	call	0x13ba	; 0x13ba <FSM_PCF8574_AddByteToQueue>
    1670:	c0 93 47 02 	sts	0x0247, r28	; 0x800247 <pcf8574+0x1>
    1674:	cf 91       	pop	r28
    1676:	08 95       	ret

00001678 <FSM_PCF8574_AddString>:
    1678:	0f 93       	push	r16
    167a:	1f 93       	push	r17
    167c:	cf 93       	push	r28
    167e:	df 93       	push	r29
    1680:	8c 01       	movw	r16, r24
    1682:	f8 01       	movw	r30, r16
    1684:	c1 91       	ld	r28, Z+
    1686:	8f 01       	movw	r16, r30
    1688:	cc 23       	and	r28, r28
    168a:	39 f1       	breq	.+78     	; 0x16da <FSM_PCF8574_AddString+0x62>
    168c:	ca 30       	cpi	r28, 0x0A	; 10
    168e:	31 f0       	breq	.+12     	; 0x169c <FSM_PCF8574_AddString+0x24>
    1690:	cd 30       	cpi	r28, 0x0D	; 13
    1692:	71 f0       	breq	.+28     	; 0x16b0 <FSM_PCF8574_AddString+0x38>
    1694:	c9 30       	cpi	r28, 0x09	; 9
    1696:	d1 f4       	brne	.+52     	; 0x16cc <FSM_PCF8574_AddString+0x54>
    1698:	d4 e0       	ldi	r29, 0x04	; 4
    169a:	10 c0       	rjmp	.+32     	; 0x16bc <FSM_PCF8574_AddString+0x44>
    169c:	80 91 47 02 	lds	r24, 0x0247	; 0x800247 <pcf8574+0x1>
    16a0:	84 30       	cpi	r24, 0x04	; 4
    16a2:	20 f4       	brcc	.+8      	; 0x16ac <FSM_PCF8574_AddString+0x34>
    16a4:	8f 5f       	subi	r24, 0xFF	; 255
    16a6:	80 93 47 02 	sts	0x0247, r24	; 0x800247 <pcf8574+0x1>
    16aa:	02 c0       	rjmp	.+4      	; 0x16b0 <FSM_PCF8574_AddString+0x38>
    16ac:	10 92 47 02 	sts	0x0247, r1	; 0x800247 <pcf8574+0x1>
    16b0:	60 e0       	ldi	r22, 0x00	; 0
    16b2:	80 91 47 02 	lds	r24, 0x0247	; 0x800247 <pcf8574+0x1>
    16b6:	0e 94 27 0b 	call	0x164e	; 0x164e <FSM_PCF8574_GoToXY>
    16ba:	e3 cf       	rjmp	.-58     	; 0x1682 <FSM_PCF8574_AddString+0xa>
    16bc:	20 e0       	ldi	r18, 0x00	; 0
    16be:	40 e0       	ldi	r20, 0x00	; 0
    16c0:	60 e8       	ldi	r22, 0x80	; 128
    16c2:	80 e2       	ldi	r24, 0x20	; 32
    16c4:	0e 94 dd 09 	call	0x13ba	; 0x13ba <FSM_PCF8574_AddByteToQueue>
    16c8:	d1 50       	subi	r29, 0x01	; 1
    16ca:	c1 f7       	brne	.-16     	; 0x16bc <FSM_PCF8574_AddString+0x44>
    16cc:	20 e0       	ldi	r18, 0x00	; 0
    16ce:	40 e0       	ldi	r20, 0x00	; 0
    16d0:	60 e8       	ldi	r22, 0x80	; 128
    16d2:	8c 2f       	mov	r24, r28
    16d4:	0e 94 dd 09 	call	0x13ba	; 0x13ba <FSM_PCF8574_AddByteToQueue>
    16d8:	d4 cf       	rjmp	.-88     	; 0x1682 <FSM_PCF8574_AddString+0xa>
    16da:	df 91       	pop	r29
    16dc:	cf 91       	pop	r28
    16de:	1f 91       	pop	r17
    16e0:	0f 91       	pop	r16
    16e2:	08 95       	ret

000016e4 <FSM_PCF8574_AddStringFromFlash>:
    16e4:	0f 93       	push	r16
    16e6:	1f 93       	push	r17
    16e8:	cf 93       	push	r28
    16ea:	df 93       	push	r29
    16ec:	8c 01       	movw	r16, r24
    16ee:	f8 01       	movw	r30, r16
    16f0:	c4 91       	lpm	r28, Z
    16f2:	cc 23       	and	r28, r28
    16f4:	49 f1       	breq	.+82     	; 0x1748 <FSM_PCF8574_AddStringFromFlash+0x64>
    16f6:	ca 30       	cpi	r28, 0x0A	; 10
    16f8:	31 f0       	breq	.+12     	; 0x1706 <FSM_PCF8574_AddStringFromFlash+0x22>
    16fa:	cd 30       	cpi	r28, 0x0D	; 13
    16fc:	71 f0       	breq	.+28     	; 0x171a <FSM_PCF8574_AddStringFromFlash+0x36>
    16fe:	c9 30       	cpi	r28, 0x09	; 9
    1700:	d1 f4       	brne	.+52     	; 0x1736 <FSM_PCF8574_AddStringFromFlash+0x52>
    1702:	d4 e0       	ldi	r29, 0x04	; 4
    1704:	10 c0       	rjmp	.+32     	; 0x1726 <FSM_PCF8574_AddStringFromFlash+0x42>
    1706:	80 91 47 02 	lds	r24, 0x0247	; 0x800247 <pcf8574+0x1>
    170a:	84 30       	cpi	r24, 0x04	; 4
    170c:	20 f4       	brcc	.+8      	; 0x1716 <FSM_PCF8574_AddStringFromFlash+0x32>
    170e:	8f 5f       	subi	r24, 0xFF	; 255
    1710:	80 93 47 02 	sts	0x0247, r24	; 0x800247 <pcf8574+0x1>
    1714:	02 c0       	rjmp	.+4      	; 0x171a <FSM_PCF8574_AddStringFromFlash+0x36>
    1716:	10 92 47 02 	sts	0x0247, r1	; 0x800247 <pcf8574+0x1>
    171a:	60 e0       	ldi	r22, 0x00	; 0
    171c:	80 91 47 02 	lds	r24, 0x0247	; 0x800247 <pcf8574+0x1>
    1720:	0e 94 27 0b 	call	0x164e	; 0x164e <FSM_PCF8574_GoToXY>
    1724:	0e c0       	rjmp	.+28     	; 0x1742 <FSM_PCF8574_AddStringFromFlash+0x5e>
    1726:	20 e0       	ldi	r18, 0x00	; 0
    1728:	40 e0       	ldi	r20, 0x00	; 0
    172a:	60 e8       	ldi	r22, 0x80	; 128
    172c:	80 e2       	ldi	r24, 0x20	; 32
    172e:	0e 94 dd 09 	call	0x13ba	; 0x13ba <FSM_PCF8574_AddByteToQueue>
    1732:	d1 50       	subi	r29, 0x01	; 1
    1734:	c1 f7       	brne	.-16     	; 0x1726 <FSM_PCF8574_AddStringFromFlash+0x42>
    1736:	20 e0       	ldi	r18, 0x00	; 0
    1738:	40 e0       	ldi	r20, 0x00	; 0
    173a:	60 e8       	ldi	r22, 0x80	; 128
    173c:	8c 2f       	mov	r24, r28
    173e:	0e 94 dd 09 	call	0x13ba	; 0x13ba <FSM_PCF8574_AddByteToQueue>
    1742:	0f 5f       	subi	r16, 0xFF	; 255
    1744:	1f 4f       	sbci	r17, 0xFF	; 255
    1746:	d3 cf       	rjmp	.-90     	; 0x16ee <FSM_PCF8574_AddStringFromFlash+0xa>
    1748:	df 91       	pop	r29
    174a:	cf 91       	pop	r28
    174c:	1f 91       	pop	r17
    174e:	0f 91       	pop	r16
    1750:	08 95       	ret

00001752 <FSM_PCF8574_AddRAWChar>:
    1752:	20 e0       	ldi	r18, 0x00	; 0
    1754:	40 e0       	ldi	r20, 0x00	; 0
    1756:	60 e8       	ldi	r22, 0x80	; 128
    1758:	0c 94 dd 09 	jmp	0x13ba	; 0x13ba <FSM_PCF8574_AddByteToQueue>

0000175c <FSM_PCF8574_Clear>:
}

/* Clear LCD display */
void FSM_PCF8574_Clear(void)
{
	FSM_PCF8574_AddByteToQueue(PCF8574_CMD_CLEAR_DISPLAY, PCF8574_COMMAND, PCF8574_BYTE_FULL, 2);
    175c:	22 e0       	ldi	r18, 0x02	; 2
    175e:	40 e0       	ldi	r20, 0x00	; 0
    1760:	60 e0       	ldi	r22, 0x00	; 0
    1762:	81 e0       	ldi	r24, 0x01	; 1
    1764:	0e 94 dd 09 	call	0x13ba	; 0x13ba <FSM_PCF8574_AddByteToQueue>
	pcf8574.last_row=0;
    1768:	10 92 47 02 	sts	0x0247, r1	; 0x800247 <pcf8574+0x1>
    176c:	08 95       	ret

0000176e <FSM_SYSTEM_Init>:
/* FUNCTIONS                                                            */
/************************************************************************/
void FSM_SYSTEM_Init(void)
{
	// Set default FSM state
	FSM_state = FSM_SYSTEM_STATE_STARTUP;
    176e:	81 e0       	ldi	r24, 0x01	; 1
    1770:	80 93 c1 01 	sts	0x01C1, r24	; 0x8001c1 <FSM_state>
	// Flush FSM timer
	ResetTimer(TIMER_SYSTEM);
    1774:	80 e0       	ldi	r24, 0x00	; 0
    1776:	0c 94 75 0e 	jmp	0x1cea	; 0x1cea <ResetTimer>

0000177a <FSM_SYSTEM_Process>:
}

void FSM_SYSTEM_Process(void)
{
	switch(FSM_state) {
    177a:	80 91 c1 01 	lds	r24, 0x01C1	; 0x8001c1 <FSM_state>
    177e:	81 30       	cpi	r24, 0x01	; 1
    1780:	09 f4       	brne	.+2      	; 0x1784 <FSM_SYSTEM_Process+0xa>
    1782:	9a c0       	rjmp	.+308    	; 0x18b8 <FSM_SYSTEM_Process+0x13e>
    1784:	20 f0       	brcs	.+8      	; 0x178e <FSM_SYSTEM_Process+0x14>
    1786:	82 30       	cpi	r24, 0x02	; 2
    1788:	09 f4       	brne	.+2      	; 0x178c <FSM_SYSTEM_Process+0x12>
    178a:	a3 c0       	rjmp	.+326    	; 0x18d2 <FSM_SYSTEM_Process+0x158>
    178c:	08 95       	ret

		case FSM_SYSTEM_STATE_IDLE: {
			/************************************************************************/
			/* Button processing                                                    */
			/************************************************************************/
			if(GetMessage(MSG_BTN_KEY_PRESSED)) { // <- Press message processing
    178e:	87 e0       	ldi	r24, 0x07	; 7
    1790:	0e 94 df 0d 	call	0x1bbe	; 0x1bbe <GetMessage>
    1794:	88 23       	and	r24, r24
    1796:	69 f1       	breq	.+90     	; 0x17f2 <FSM_SYSTEM_Process+0x78>
				// Getting press type
				uint8_t *press_type = GetMessageParam(MSG_BTN_KEY_PRESSED);
    1798:	87 e0       	ldi	r24, 0x07	; 7
    179a:	0e 94 f0 0d 	call	0x1be0	; 0x1be0 <GetMessageParam>
				// Processing button press by press time
				if(*press_type == BUTTON_EVENT_LONG_PRESS) {
    179e:	fc 01       	movw	r30, r24
    17a0:	90 81       	ld	r25, Z
    17a2:	80 91 ac 03 	lds	r24, 0x03AC	; 0x8003ac <device+0x3>
    17a6:	92 30       	cpi	r25, 0x02	; 2
    17a8:	61 f4       	brne	.+24     	; 0x17c2 <FSM_SYSTEM_Process+0x48>
					if(device.mode != DEVICE_MODE_SHOW_MENU) {
    17aa:	82 30       	cpi	r24, 0x02	; 2
    17ac:	11 f1       	breq	.+68     	; 0x17f2 <FSM_SYSTEM_Process+0x78>
						// Set device mode
						device.mode = DEVICE_MODE_SHOW_MENU;
    17ae:	90 93 ac 03 	sts	0x03AC, r25	; 0x8003ac <device+0x3>
						device.menu_cursor=0;
    17b2:	10 92 ab 03 	sts	0x03AB, r1	; 0x8003ab <device+0x2>
						MENU_Start();
    17b6:	0e 94 24 10 	call	0x2048	; 0x2048 <MENU_Start>
						SendMessageWOParam(MSG_LCD_REFRESH_DISPLAY);
    17ba:	81 e0       	ldi	r24, 0x01	; 1
    17bc:	0e 94 d0 0d 	call	0x1ba0	; 0x1ba0 <SendMessageWOParam>
    17c0:	18 c0       	rjmp	.+48     	; 0x17f2 <FSM_SYSTEM_Process+0x78>
					}
				} else {
					// Processing key press action by device modes
					switch(device.mode) {
    17c2:	82 30       	cpi	r24, 0x02	; 2
    17c4:	b1 f4       	brne	.+44     	; 0x17f2 <FSM_SYSTEM_Process+0x78>

						case DEVICE_MODE_SHOW_MENU: {
							switch(MENU_SELECT) {
    17c6:	80 91 8d 03 	lds	r24, 0x038D	; 0x80038d <selected_menu_item>
    17ca:	90 91 8e 03 	lds	r25, 0x038E	; 0x80038e <selected_menu_item+0x1>
    17ce:	fc 01       	movw	r30, r24
    17d0:	38 96       	adiw	r30, 0x08	; 8
    17d2:	e4 91       	lpm	r30, Z
    17d4:	e1 30       	cpi	r30, 0x01	; 1
    17d6:	11 f4       	brne	.+4      	; 0x17dc <FSM_SYSTEM_Process+0x62>
								case MENU_ACTION_CANCEL: { // <- EXIT menu action
									device.mode = DEVICE_MODE_IDLE;
    17d8:	e0 93 ac 03 	sts	0x03AC, r30	; 0x8003ac <device+0x3>
								}

								default: break;
							}

							device.menu_cursor=0;
    17dc:	10 92 ab 03 	sts	0x03AB, r1	; 0x8003ab <device+0x2>
							MENU_Change(MENU_CHILD);
    17e0:	fc 01       	movw	r30, r24
    17e2:	36 96       	adiw	r30, 0x06	; 6
    17e4:	85 91       	lpm	r24, Z+
    17e6:	94 91       	lpm	r25, Z
    17e8:	0e 94 18 10 	call	0x2030	; 0x2030 <MENU_Change>
							SendMessageWOParam(MSG_LCD_REFRESH_DISPLAY);
    17ec:	81 e0       	ldi	r24, 0x01	; 1
    17ee:	0c 94 d0 0d 	jmp	0x1ba0	; 0x1ba0 <SendMessageWOParam>
			}

			/************************************************************************/
			/* Encoder processing                                                   */
			/************************************************************************/
			if(GetMessage(MSG_ENC_ROTATE)) {
    17f2:	86 e0       	ldi	r24, 0x06	; 6
    17f4:	0e 94 df 0d 	call	0x1bbe	; 0x1bbe <GetMessage>
    17f8:	88 23       	and	r24, r24
    17fa:	b9 f0       	breq	.+46     	; 0x182a <FSM_SYSTEM_Process+0xb0>
				// Get rotate direction
				int8_t *rotate = GetMessageParam(MSG_ENC_ROTATE);
    17fc:	86 e0       	ldi	r24, 0x06	; 6
    17fe:	0e 94 f0 0d 	call	0x1be0	; 0x1be0 <GetMessageParam>
				// Processing rotate action by device modes
				switch(device.mode) {
    1802:	20 91 ac 03 	lds	r18, 0x03AC	; 0x8003ac <device+0x3>
    1806:	22 30       	cpi	r18, 0x02	; 2
    1808:	81 f4       	brne	.+32     	; 0x182a <FSM_SYSTEM_Process+0xb0>
					// SHOW MENU mode rotate processing
					case DEVICE_MODE_SHOW_MENU: {
						if(*rotate > 0) {
    180a:	fc 01       	movw	r30, r24
    180c:	80 81       	ld	r24, Z
    180e:	e0 91 8d 03 	lds	r30, 0x038D	; 0x80038d <selected_menu_item>
    1812:	f0 91 8e 03 	lds	r31, 0x038E	; 0x80038e <selected_menu_item+0x1>
    1816:	18 16       	cp	r1, r24
    1818:	0c f0       	brlt	.+2      	; 0x181c <FSM_SYSTEM_Process+0xa2>
							MENU_Change(MENU_NEXT);
						} else {
							MENU_Change(MENU_PREVIOUS);
    181a:	32 96       	adiw	r30, 0x02	; 2
    181c:	85 91       	lpm	r24, Z+
    181e:	94 91       	lpm	r25, Z
    1820:	0e 94 18 10 	call	0x2030	; 0x2030 <MENU_Change>
						}
						// Send message to refresh display
						SendMessageWOParam(MSG_LCD_REFRESH_DISPLAY);
    1824:	81 e0       	ldi	r24, 0x01	; 1
    1826:	0e 94 d0 0d 	call	0x1ba0	; 0x1ba0 <SendMessageWOParam>
			}

			/************************************************************************/
			/* INDICATION CONTROL                                                   */
			/************************************************************************/
			if(!mhz19b._error && GetTimer(TIMER_SYSTEM) >= 1000) {
    182a:	80 91 99 03 	lds	r24, 0x0399	; 0x800399 <mhz19b+0x1>
    182e:	81 11       	cpse	r24, r1
    1830:	5d c0       	rjmp	.+186    	; 0x18ec <FSM_SYSTEM_Process+0x172>
    1832:	0e 94 6c 0e 	call	0x1cd8	; 0x1cd8 <GetTimer>
    1836:	88 3e       	cpi	r24, 0xE8	; 232
    1838:	93 40       	sbci	r25, 0x03	; 3
    183a:	08 f4       	brcc	.+2      	; 0x183e <FSM_SYSTEM_Process+0xc4>
    183c:	57 c0       	rjmp	.+174    	; 0x18ec <FSM_SYSTEM_Process+0x172>
				if(mhz19b.value <= 900) {
    183e:	80 91 9b 03 	lds	r24, 0x039B	; 0x80039b <mhz19b+0x3>
    1842:	90 91 9c 03 	lds	r25, 0x039C	; 0x80039c <mhz19b+0x4>
    1846:	85 38       	cpi	r24, 0x85	; 133
    1848:	23 e0       	ldi	r18, 0x03	; 3
    184a:	92 07       	cpc	r25, r18
    184c:	18 f4       	brcc	.+6      	; 0x1854 <FSM_SYSTEM_Process+0xda>
					led_params._blinking = 0;
    184e:	10 92 bc 01 	sts	0x01BC, r1	; 0x8001bc <led_params+0x1>
    1852:	09 c0       	rjmp	.+18     	; 0x1866 <FSM_SYSTEM_Process+0xec>
					led_params.color = GREEN;
					led_params.glow_time_ms = 0xFFFF;
				} else if(mhz19b.value > 900 && mhz19b.value <= 1000) {
    1854:	9c 01       	movw	r18, r24
    1856:	25 58       	subi	r18, 0x85	; 133
    1858:	33 40       	sbci	r19, 0x03	; 3
    185a:	24 36       	cpi	r18, 0x64	; 100
    185c:	31 05       	cpc	r19, r1
    185e:	28 f4       	brcc	.+10     	; 0x186a <FSM_SYSTEM_Process+0xf0>
					led_params._blinking = 1;
    1860:	81 e0       	ldi	r24, 0x01	; 1
    1862:	80 93 bc 01 	sts	0x01BC, r24	; 0x8001bc <led_params+0x1>
					led_params.color = GREEN;
    1866:	82 e0       	ldi	r24, 0x02	; 2
    1868:	12 c0       	rjmp	.+36     	; 0x188e <FSM_SYSTEM_Process+0x114>
					led_params.glow_time_ms = 0xFFFF;
				} else if(mhz19b.value > 1000 && mhz19b.value <= 1700) {
    186a:	9c 01       	movw	r18, r24
    186c:	29 5e       	subi	r18, 0xE9	; 233
    186e:	33 40       	sbci	r19, 0x03	; 3
    1870:	2c 3b       	cpi	r18, 0xBC	; 188
    1872:	32 40       	sbci	r19, 0x02	; 2
    1874:	20 f4       	brcc	.+8      	; 0x187e <FSM_SYSTEM_Process+0x104>
					led_params._blinking = 0;
    1876:	10 92 bc 01 	sts	0x01BC, r1	; 0x8001bc <led_params+0x1>
					led_params.color = YELLOW;
    187a:	81 e0       	ldi	r24, 0x01	; 1
    187c:	08 c0       	rjmp	.+16     	; 0x188e <FSM_SYSTEM_Process+0x114>
					led_params.glow_time_ms = 0xFFFF;
				} else if(mhz19b.value > 1700 && mhz19b.value <= 2000) {
    187e:	85 5a       	subi	r24, 0xA5	; 165
    1880:	96 40       	sbci	r25, 0x06	; 6
    1882:	8c 32       	cpi	r24, 0x2C	; 44
    1884:	91 40       	sbci	r25, 0x01	; 1
    1886:	30 f4       	brcc	.+12     	; 0x1894 <FSM_SYSTEM_Process+0x11a>
					led_params._blinking = 1;
    1888:	81 e0       	ldi	r24, 0x01	; 1
    188a:	80 93 bc 01 	sts	0x01BC, r24	; 0x8001bc <led_params+0x1>
					led_params.color = YELLOW;
    188e:	80 93 bd 01 	sts	0x01BD, r24	; 0x8001bd <led_params+0x2>
    1892:	04 c0       	rjmp	.+8      	; 0x189c <FSM_SYSTEM_Process+0x122>
					led_params.glow_time_ms = 0xFFFF;
				} else {
					led_params._blinking = 0;
    1894:	10 92 bc 01 	sts	0x01BC, r1	; 0x8001bc <led_params+0x1>
					led_params.color = RED;
    1898:	10 92 bd 01 	sts	0x01BD, r1	; 0x8001bd <led_params+0x2>
					led_params.glow_time_ms = 0xFFFF;
    189c:	8f ef       	ldi	r24, 0xFF	; 255
    189e:	9f ef       	ldi	r25, 0xFF	; 255
    18a0:	90 93 c0 01 	sts	0x01C0, r25	; 0x8001c0 <led_params+0x5>
    18a4:	80 93 bf 01 	sts	0x01BF, r24	; 0x8001bf <led_params+0x4>
				}
				// Send message with params
				SendMessageWParam(MSG_LEDS_PROCESSING, (void *)&led_params);
    18a8:	6b eb       	ldi	r22, 0xBB	; 187
    18aa:	71 e0       	ldi	r23, 0x01	; 1
    18ac:	88 e0       	ldi	r24, 0x08	; 8
    18ae:	0e 94 bf 0d 	call	0x1b7e	; 0x1b7e <SendMessageWParam>
				ResetTimer(TIMER_SYSTEM);
    18b2:	80 e0       	ldi	r24, 0x00	; 0
    18b4:	0c 94 75 0e 	jmp	0x1cea	; 0x1cea <ResetTimer>
			return;
		}

		case FSM_SYSTEM_STATE_STARTUP: {
			// Waiting for system will be initialized
			if(GetTimer(TIMER_SYSTEM) > SYSTEM_INITIALIZATION_TIMEOUT) {
    18b8:	80 e0       	ldi	r24, 0x00	; 0
    18ba:	0e 94 6c 0e 	call	0x1cd8	; 0x1cd8 <GetTimer>
    18be:	85 36       	cpi	r24, 0x65	; 101
    18c0:	91 05       	cpc	r25, r1
    18c2:	a0 f0       	brcs	.+40     	; 0x18ec <FSM_SYSTEM_Process+0x172>
				// Send BC message after
				SendBCMessage(MSG_BC_SYSTEM_STARTUP_RUN);
    18c4:	80 e0       	ldi	r24, 0x00	; 0
    18c6:	0e 94 fc 0d 	call	0x1bf8	; 0x1bf8 <SendBCMessage>
				// Goto waiting complete rules
				FSM_state = FSM_SYSTEM_STATE_STARTUP_COMPLETE;
    18ca:	82 e0       	ldi	r24, 0x02	; 2
    18cc:	80 93 c1 01 	sts	0x01C1, r24	; 0x8001c1 <FSM_state>
    18d0:	08 95       	ret
			return;
		}

		case FSM_SYSTEM_STATE_STARTUP_COMPLETE: {
			// Waiting splash screen will be hidden
			if(GetMessage(MSG_CHK_SENSORS_COMPLETE)) {
    18d2:	83 e0       	ldi	r24, 0x03	; 3
    18d4:	0e 94 df 0d 	call	0x1bbe	; 0x1bbe <GetMessage>
    18d8:	88 23       	and	r24, r24
    18da:	41 f0       	breq	.+16     	; 0x18ec <FSM_SYSTEM_Process+0x172>
				// Send BC message after
				SendBCMessage(MSG_BC_SYSTEM_STARTUP_COMPLETE);
    18dc:	81 e0       	ldi	r24, 0x01	; 1
    18de:	0e 94 fc 0d 	call	0x1bf8	; 0x1bf8 <SendBCMessage>
				// Goto IDLE state
				FSM_state = FSM_SYSTEM_STATE_IDLE;
    18e2:	10 92 c1 01 	sts	0x01C1, r1	; 0x8001c1 <FSM_state>
				// Set default device mode
				device.mode = DEVICE_MODE_IDLE;
    18e6:	81 e0       	ldi	r24, 0x01	; 1
    18e8:	80 93 ac 03 	sts	0x03AC, r24	; 0x8003ac <device+0x3>
    18ec:	08 95       	ret

000018ee <FSM_UART_Init>:
/* FUNCTIONS                                                            */
/************************************************************************/
void FSM_UART_Init(void)
{
	// Set default FSM state
	FSM_state = FSM_UART_STATE_IDLE;
    18ee:	10 92 c2 01 	sts	0x01C2, r1	; 0x8001c2 <FSM_state>
    18f2:	08 95       	ret

000018f4 <FSM_UART_Process>:
}

void FSM_UART_Process(void)
{
	switch(FSM_state) {
    18f4:	80 91 c2 01 	lds	r24, 0x01C2	; 0x8001c2 <FSM_state>
    18f8:	08 95       	ret

000018fa <FSM_X1226_Init>:
/* FUNCTIONS                                                            */
/************************************************************************/
void FSM_X1226_Init(void)
{
	// Goto wait startup state
	FSM_state = FSM_X1226_STATE_STARTUP_TIMEOUT;
    18fa:	81 e0       	ldi	r24, 0x01	; 1
    18fc:	80 93 d1 01 	sts	0x01D1, r24	; 0x8001d1 <FSM_state>
	// Flush FSM timer
	ResetTimer(TIMER_X1226);
    1900:	83 e0       	ldi	r24, 0x03	; 3
    1902:	0c 94 75 0e 	jmp	0x1cea	; 0x1cea <ResetTimer>

00001906 <FSM_X1226_Process>:
}

void FSM_X1226_Process(void)
{
    1906:	ff 92       	push	r15
    1908:	0f 93       	push	r16
    190a:	1f 93       	push	r17
    190c:	cf 93       	push	r28
    190e:	df 93       	push	r29
    1910:	1f 92       	push	r1
    1912:	cd b7       	in	r28, 0x3d	; 61
    1914:	de b7       	in	r29, 0x3e	; 62
	switch(FSM_state) {
    1916:	e0 91 d1 01 	lds	r30, 0x01D1	; 0x8001d1 <FSM_state>
    191a:	8e 2f       	mov	r24, r30
    191c:	90 e0       	ldi	r25, 0x00	; 0
    191e:	8b 30       	cpi	r24, 0x0B	; 11
    1920:	91 05       	cpc	r25, r1
    1922:	08 f0       	brcs	.+2      	; 0x1926 <FSM_X1226_Process+0x20>
    1924:	10 c1       	rjmp	.+544    	; 0x1b46 <FSM_X1226_Process+0x240>
    1926:	fc 01       	movw	r30, r24
    1928:	e4 5c       	subi	r30, 0xC4	; 196
    192a:	ff 4f       	sbci	r31, 0xFF	; 255
    192c:	0c 94 a7 10 	jmp	0x214e	; 0x214e <__tablejump2__>
		/* Waiting timeout before initialize */
		case FSM_X1226_STATE_STARTUP_TIMEOUT: {
			if(GetTimer(TIMER_X1226) >= X1226_STARTUP_DELAY) {
    1930:	83 e0       	ldi	r24, 0x03	; 3
    1932:	0e 94 6c 0e 	call	0x1cd8	; 0x1cd8 <GetTimer>
    1936:	44 97       	sbiw	r24, 0x14	; 20
    1938:	08 f4       	brcc	.+2      	; 0x193c <FSM_X1226_Process+0x36>
    193a:	05 c1       	rjmp	.+522    	; 0x1b46 <FSM_X1226_Process+0x240>
				// Goto reading rtc status
				FSM_state = FSM_X1226_STATE_READ_STATUS;
    193c:	82 e0       	ldi	r24, 0x02	; 2
    193e:	0f c0       	rjmp	.+30     	; 0x195e <FSM_X1226_Process+0x58>
			return;
		}

		/* Getting STATUS info from X1226 */
		case FSM_X1226_STATE_READ_STATUS: {
			if(!i2c._busy) {
    1940:	80 91 e7 01 	lds	r24, 0x01E7	; 0x8001e7 <i2c>
    1944:	81 11       	cpse	r24, r1
    1946:	ff c0       	rjmp	.+510    	; 0x1b46 <FSM_X1226_Process+0x240>
				if(I2C_RequestFrom(X1226_CCR_ADDRESS, 1, 2, X1226_REG_STATUS)) {
    1948:	2f e3       	ldi	r18, 0x3F	; 63
    194a:	30 e0       	ldi	r19, 0x00	; 0
    194c:	42 e0       	ldi	r20, 0x02	; 2
    194e:	61 e0       	ldi	r22, 0x01	; 1
    1950:	8e ed       	ldi	r24, 0xDE	; 222
    1952:	0e 94 23 03 	call	0x646	; 0x646 <I2C_RequestFrom>
    1956:	88 23       	and	r24, r24
    1958:	09 f4       	brne	.+2      	; 0x195c <FSM_X1226_Process+0x56>
    195a:	f5 c0       	rjmp	.+490    	; 0x1b46 <FSM_X1226_Process+0x240>
					// Goto status processing
					FSM_state = FSM_X1226_STATE_STATUS_PROCESSING;
    195c:	83 e0       	ldi	r24, 0x03	; 3
    195e:	80 93 d1 01 	sts	0x01D1, r24	; 0x8001d1 <FSM_state>
    1962:	f1 c0       	rjmp	.+482    	; 0x1b46 <FSM_X1226_Process+0x240>
			return;
		}

		/* Processing by status reg value */
		case FSM_X1226_STATE_STATUS_PROCESSING: {
			if(!i2c._busy) {
    1964:	80 91 e7 01 	lds	r24, 0x01E7	; 0x8001e7 <i2c>
    1968:	81 11       	cpse	r24, r1
    196a:	ed c0       	rjmp	.+474    	; 0x1b46 <FSM_X1226_Process+0x240>
				if(!i2c._error) {
    196c:	80 91 e9 01 	lds	r24, 0x01E9	; 0x8001e9 <i2c+0x2>
    1970:	81 11       	cpse	r24, r1
    1972:	0e c0       	rjmp	.+28     	; 0x1990 <FSM_X1226_Process+0x8a>
					// Set presence flag
					rtc._presence=1;
    1974:	11 e0       	ldi	r17, 0x01	; 1
    1976:	10 93 8f 03 	sts	0x038F, r17	; 0x80038f <rtc>
					// Action by status register data bit
					if(I2C_Read() & _RTCF) { // <- Total power fail occured
    197a:	0e 94 9c 03 	call	0x738	; 0x738 <I2C_Read>
    197e:	80 ff       	sbrs	r24, 0
    1980:	04 c0       	rjmp	.+8      	; 0x198a <FSM_X1226_Process+0x84>
						// Set initialization type to FULL init
						x1226.init_type = X1226_INIT_TYPE_FULL; 
    1982:	82 e0       	ldi	r24, 0x02	; 2
    1984:	80 93 c3 01 	sts	0x01C3, r24	; 0x8001c3 <x1226>
    1988:	c5 c0       	rjmp	.+394    	; 0x1b14 <FSM_X1226_Process+0x20e>
					} else { // <- Power was not have total power fail
						// Set initialization type to PARTIAL init
						x1226.init_type = X1226_INIT_TYPE_PARTIAL;
    198a:	10 93 c3 01 	sts	0x01C3, r17	; 0x8001c3 <x1226>
    198e:	c2 c0       	rjmp	.+388    	; 0x1b14 <FSM_X1226_Process+0x20e>
					}
				} else {
					// Flush presence flag
					rtc._presence=0;
    1990:	10 92 8f 03 	sts	0x038F, r1	; 0x80038f <rtc>
    1994:	bf c0       	rjmp	.+382    	; 0x1b14 <FSM_X1226_Process+0x20e>
			return;
		}

		/* 1 of 2 steps write protection off */
		case FSM_X1226_STATE_ENABLE_CCR_WRITE_ACCESS_STEP1: {
			if(!i2c._busy) {
    1996:	80 91 e7 01 	lds	r24, 0x01E7	; 0x8001e7 <i2c>
    199a:	81 11       	cpse	r24, r1
    199c:	d4 c0       	rjmp	.+424    	; 0x1b46 <FSM_X1226_Process+0x240>
				// Send 0x2(_WEL bit set) to the X1226
				uint8_t t = _WEL;
    199e:	82 e0       	ldi	r24, 0x02	; 2
    19a0:	89 83       	std	Y+1, r24	; 0x01
				I2C_TransmitTo(&t, X1226_CCR_ADDRESS, 1, 2, X1226_REG_STATUS);
    19a2:	0f e3       	ldi	r16, 0x3F	; 63
    19a4:	10 e0       	ldi	r17, 0x00	; 0
    19a6:	22 e0       	ldi	r18, 0x02	; 2
    19a8:	41 e0       	ldi	r20, 0x01	; 1
    19aa:	6e ed       	ldi	r22, 0xDE	; 222
    19ac:	ce 01       	movw	r24, r28
    19ae:	01 96       	adiw	r24, 0x01	; 1
    19b0:	0e 94 5a 03 	call	0x6b4	; 0x6b4 <I2C_TransmitTo>
				// Goto to second step write protection
				FSM_state = FSM_X1226_STATE_ENABLE_CCR_WRITE_ACCESS_STEP2;
    19b4:	85 e0       	ldi	r24, 0x05	; 5
    19b6:	d3 cf       	rjmp	.-90     	; 0x195e <FSM_X1226_Process+0x58>
			return;
		}

		/* 2 of 2 steps write protection off */
		case FSM_X1226_STATE_ENABLE_CCR_WRITE_ACCESS_STEP2: {
			if(!i2c._busy) {
    19b8:	80 91 e7 01 	lds	r24, 0x01E7	; 0x8001e7 <i2c>
    19bc:	81 11       	cpse	r24, r1
    19be:	c3 c0       	rjmp	.+390    	; 0x1b46 <FSM_X1226_Process+0x240>
				// Send 0x6(_WEL & _RWEL bit set) to the X1226
				uint8_t t = (_WEL|_RWEL);
    19c0:	86 e0       	ldi	r24, 0x06	; 6
    19c2:	f8 2e       	mov	r15, r24
    19c4:	f9 82       	std	Y+1, r15	; 0x01
				I2C_TransmitTo(&t, X1226_CCR_ADDRESS, 1, 2, X1226_REG_STATUS);
    19c6:	0f e3       	ldi	r16, 0x3F	; 63
    19c8:	10 e0       	ldi	r17, 0x00	; 0
    19ca:	22 e0       	ldi	r18, 0x02	; 2
    19cc:	41 e0       	ldi	r20, 0x01	; 1
    19ce:	6e ed       	ldi	r22, 0xDE	; 222
    19d0:	ce 01       	movw	r24, r28
    19d2:	01 96       	adiw	r24, 0x01	; 1
    19d4:	0e 94 5a 03 	call	0x6b4	; 0x6b4 <I2C_TransmitTo>
				
				switch(x1226.init_type) {
    19d8:	80 91 c3 01 	lds	r24, 0x01C3	; 0x8001c3 <x1226>
    19dc:	81 30       	cpi	r24, 0x01	; 1
    19de:	a1 f1       	breq	.+104    	; 0x1a48 <FSM_X1226_Process+0x142>
    19e0:	82 30       	cpi	r24, 0x02	; 2
    19e2:	09 f0       	breq	.+2      	; 0x19e6 <FSM_X1226_Process+0xe0>
    19e4:	97 c0       	rjmp	.+302    	; 0x1b14 <FSM_X1226_Process+0x20e>
					/* Need full rtc initialization */
					case X1226_INIT_TYPE_FULL: {
						// Goto to setup clock date/time default values
						FSM_state = FSM_X1226_STATE_INIT_CLOCK;
    19e6:	f0 92 d1 01 	sts	0x01D1, r15	; 0x8001d1 <FSM_state>
						return;
    19ea:	ad c0       	rjmp	.+346    	; 0x1b46 <FSM_X1226_Process+0x240>
			return;
		}

		/* Setup clock date/time default values */
		case FSM_X1226_STATE_INIT_CLOCK: {
			if(i2c._busy) { return; }
    19ec:	80 91 e7 01 	lds	r24, 0x01E7	; 0x8001e7 <i2c>
    19f0:	81 11       	cpse	r24, r1
    19f2:	a9 c0       	rjmp	.+338    	; 0x1b46 <FSM_X1226_Process+0x240>
			// Store default values
			x1226.ccr.sec = dec2bcd(0);
    19f4:	0e 94 07 0f 	call	0x1e0e	; 0x1e0e <dec2bcd>
    19f8:	80 93 c4 01 	sts	0x01C4, r24	; 0x8001c4 <x1226+0x1>
			x1226.ccr.min = dec2bcd(DEFAULT_TIME_MINUTE);
    19fc:	84 e3       	ldi	r24, 0x34	; 52
    19fe:	0e 94 07 0f 	call	0x1e0e	; 0x1e0e <dec2bcd>
    1a02:	80 93 c5 01 	sts	0x01C5, r24	; 0x8001c5 <x1226+0x2>
			x1226.ccr.hour = (dec2bcd(DEFAULT_TIME_HOUR) | _MIL);	// Set 24hr time format
    1a06:	8e e0       	ldi	r24, 0x0E	; 14
    1a08:	0e 94 07 0f 	call	0x1e0e	; 0x1e0e <dec2bcd>
    1a0c:	80 68       	ori	r24, 0x80	; 128
    1a0e:	80 93 c6 01 	sts	0x01C6, r24	; 0x8001c6 <x1226+0x3>
			x1226.ccr.day = dec2bcd(DEFAULT_DATE_DAY);
    1a12:	81 e0       	ldi	r24, 0x01	; 1
    1a14:	0e 94 07 0f 	call	0x1e0e	; 0x1e0e <dec2bcd>
    1a18:	80 93 c7 01 	sts	0x01C7, r24	; 0x8001c7 <x1226+0x4>
			x1226.ccr.month = dec2bcd(DEFAULT_DATE_MONTH);
    1a1c:	82 e0       	ldi	r24, 0x02	; 2
    1a1e:	0e 94 07 0f 	call	0x1e0e	; 0x1e0e <dec2bcd>
    1a22:	80 93 c8 01 	sts	0x01C8, r24	; 0x8001c8 <x1226+0x5>
			x1226.ccr.year = dec2bcd(DEFAULT_DATE_YEAR);
    1a26:	83 e1       	ldi	r24, 0x13	; 19
    1a28:	0e 94 07 0f 	call	0x1e0e	; 0x1e0e <dec2bcd>
    1a2c:	80 93 c9 01 	sts	0x01C9, r24	; 0x8001c9 <x1226+0x6>
			x1226.ccr.dow = DEFAULT_DATE_DOW;
    1a30:	84 e0       	ldi	r24, 0x04	; 4
    1a32:	80 93 ca 01 	sts	0x01CA, r24	; 0x8001ca <x1226+0x7>
			// Send 6 byte date/time configuration values
			I2C_TransmitTo((void *)&x1226.ccr, X1226_CCR_ADDRESS, 7, 2, X1226_REG_RTC_SC);
    1a36:	00 e3       	ldi	r16, 0x30	; 48
    1a38:	10 e0       	ldi	r17, 0x00	; 0
    1a3a:	22 e0       	ldi	r18, 0x02	; 2
    1a3c:	47 e0       	ldi	r20, 0x07	; 7
    1a3e:	6e ed       	ldi	r22, 0xDE	; 222
    1a40:	84 ec       	ldi	r24, 0xC4	; 196
    1a42:	91 e0       	ldi	r25, 0x01	; 1
    1a44:	0e 94 5a 03 	call	0x6b4	; 0x6b4 <I2C_TransmitTo>
			// Goto EEPROM params setup
			FSM_state = FSM_X1226_STATE_SET_EEPROM_PARAMS;
    1a48:	87 e0       	ldi	r24, 0x07	; 7
    1a4a:	89 cf       	rjmp	.-238    	; 0x195e <FSM_X1226_Process+0x58>
			return;
		}

		/* Custom params to use RTC x1226 */
		case FSM_X1226_STATE_SET_EEPROM_PARAMS: {
			if(!i2c._busy) {
    1a4c:	80 91 e7 01 	lds	r24, 0x01E7	; 0x8001e7 <i2c>
    1a50:	81 11       	cpse	r24, r1
    1a52:	79 c0       	rjmp	.+242    	; 0x1b46 <FSM_X1226_Process+0x240>
				// Set 1Hz output to IRQ pin
				uint8_t t = (_FO1|_FO0);
    1a54:	88 e1       	ldi	r24, 0x18	; 24
    1a56:	89 83       	std	Y+1, r24	; 0x01
				I2C_TransmitTo(&t, X1226_CCR_ADDRESS, 1, 2, X1226_REG_CTRL_INT);
    1a58:	01 e1       	ldi	r16, 0x11	; 17
    1a5a:	10 e0       	ldi	r17, 0x00	; 0
    1a5c:	22 e0       	ldi	r18, 0x02	; 2
    1a5e:	41 e0       	ldi	r20, 0x01	; 1
    1a60:	6e ed       	ldi	r22, 0xDE	; 222
    1a62:	ce 01       	movw	r24, r28
    1a64:	01 96       	adiw	r24, 0x01	; 1
    1a66:	0e 94 5a 03 	call	0x6b4	; 0x6b4 <I2C_TransmitTo>
				// Goto EEPROM write timeout
				FSM_state = FSM_X1226_STATE_SET_EEPROM_PARAMS_TIMEOUT;
    1a6a:	88 e0       	ldi	r24, 0x08	; 8
    1a6c:	67 c0       	rjmp	.+206    	; 0x1b3c <FSM_X1226_Process+0x236>
			return;
		}

		/* EEPROM operation timeout state */
		case FSM_X1226_STATE_SET_EEPROM_PARAMS_TIMEOUT: {
			if(GetTimer(TIMER_X1226) >= X1226_EEPROM_WRITE_TIMEOUT) {
    1a6e:	83 e0       	ldi	r24, 0x03	; 3
    1a70:	0e 94 6c 0e 	call	0x1cd8	; 0x1cd8 <GetTimer>
    1a74:	0c 97       	sbiw	r24, 0x0c	; 12
    1a76:	08 f4       	brcc	.+2      	; 0x1a7a <FSM_X1226_Process+0x174>
    1a78:	66 c0       	rjmp	.+204    	; 0x1b46 <FSM_X1226_Process+0x240>
				// 
				x1226.init_type = X1226_INIT_TYPE_NO_NEED;
    1a7a:	10 92 c3 01 	sts	0x01C3, r1	; 0x8001c3 <x1226>
				// Goto default work state
				FSM_state = FSM_X1226_STATE_IDLE;
    1a7e:	10 92 d1 01 	sts	0x01D1, r1	; 0x8001d1 <FSM_state>
    1a82:	5e c0       	rjmp	.+188    	; 0x1b40 <FSM_X1226_Process+0x23a>
			return;
		}

		/* Receive CCR data from X1226 */
		case FSM_X1226_STATE_READ_CCR_DATA: {
			if(!i2c._busy) {
    1a84:	80 91 e7 01 	lds	r24, 0x01E7	; 0x8001e7 <i2c>
    1a88:	81 11       	cpse	r24, r1
    1a8a:	5d c0       	rjmp	.+186    	; 0x1b46 <FSM_X1226_Process+0x240>
				if(I2C_RequestFrom(X1226_CCR_ADDRESS, 7, 2, X1226_REG_RTC_SC)) {
    1a8c:	20 e3       	ldi	r18, 0x30	; 48
    1a8e:	30 e0       	ldi	r19, 0x00	; 0
    1a90:	42 e0       	ldi	r20, 0x02	; 2
    1a92:	67 e0       	ldi	r22, 0x07	; 7
    1a94:	8e ed       	ldi	r24, 0xDE	; 222
    1a96:	0e 94 23 03 	call	0x646	; 0x646 <I2C_RequestFrom>
    1a9a:	88 23       	and	r24, r24
    1a9c:	09 f4       	brne	.+2      	; 0x1aa0 <FSM_X1226_Process+0x19a>
    1a9e:	53 c0       	rjmp	.+166    	; 0x1b46 <FSM_X1226_Process+0x240>
					// Goto processing received data
					FSM_state = FSM_X1226_STATE_CCR_DATA_PROCESSING;
    1aa0:	8a e0       	ldi	r24, 0x0A	; 10
    1aa2:	5d cf       	rjmp	.-326    	; 0x195e <FSM_X1226_Process+0x58>
			return;
		}

		/* Processing received data */
		case FSM_X1226_STATE_CCR_DATA_PROCESSING: {
			if(!i2c._busy) {
    1aa4:	80 91 e7 01 	lds	r24, 0x01E7	; 0x8001e7 <i2c>
    1aa8:	81 11       	cpse	r24, r1
    1aaa:	4d c0       	rjmp	.+154    	; 0x1b46 <FSM_X1226_Process+0x240>
    1aac:	04 ec       	ldi	r16, 0xC4	; 196
    1aae:	11 e0       	ldi	r17, 0x01	; 1
				// Receive data from I2C buffer
				uint8_t *p_data = (void *)&x1226.ccr.sec;
				for(uint8_t i=7; i; i--) {
					*(p_data++) = I2C_Read();
    1ab0:	0e 94 9c 03 	call	0x738	; 0x738 <I2C_Read>
    1ab4:	f8 01       	movw	r30, r16
    1ab6:	81 93       	st	Z+, r24
    1ab8:	8f 01       	movw	r16, r30
		/* Processing received data */
		case FSM_X1226_STATE_CCR_DATA_PROCESSING: {
			if(!i2c._busy) {
				// Receive data from I2C buffer
				uint8_t *p_data = (void *)&x1226.ccr.sec;
				for(uint8_t i=7; i; i--) {
    1aba:	f1 e0       	ldi	r31, 0x01	; 1
    1abc:	0b 3c       	cpi	r16, 0xCB	; 203
    1abe:	1f 07       	cpc	r17, r31
    1ac0:	b9 f7       	brne	.-18     	; 0x1ab0 <FSM_X1226_Process+0x1aa>
					*(p_data++) = I2C_Read();
				}
				// Processing received data
				rtc.sec = bcd2dec(x1226.ccr.sec);
    1ac2:	80 91 c4 01 	lds	r24, 0x01C4	; 0x8001c4 <x1226+0x1>
    1ac6:	0e 94 fe 0e 	call	0x1dfc	; 0x1dfc <bcd2dec>
    1aca:	80 93 90 03 	sts	0x0390, r24	; 0x800390 <rtc+0x1>
				rtc.min = bcd2dec(x1226.ccr.min);
    1ace:	80 91 c5 01 	lds	r24, 0x01C5	; 0x8001c5 <x1226+0x2>
    1ad2:	0e 94 fe 0e 	call	0x1dfc	; 0x1dfc <bcd2dec>
    1ad6:	80 93 91 03 	sts	0x0391, r24	; 0x800391 <rtc+0x2>
				rtc.hour = bcd2dec(x1226.ccr.hour & ~_MIL);
    1ada:	80 91 c6 01 	lds	r24, 0x01C6	; 0x8001c6 <x1226+0x3>
    1ade:	8f 77       	andi	r24, 0x7F	; 127
    1ae0:	0e 94 fe 0e 	call	0x1dfc	; 0x1dfc <bcd2dec>
    1ae4:	80 93 92 03 	sts	0x0392, r24	; 0x800392 <rtc+0x3>
				rtc.dow = x1226.ccr.dow;
    1ae8:	80 91 ca 01 	lds	r24, 0x01CA	; 0x8001ca <x1226+0x7>
    1aec:	80 93 93 03 	sts	0x0393, r24	; 0x800393 <rtc+0x4>
				rtc.day = bcd2dec(x1226.ccr.day);
    1af0:	80 91 c7 01 	lds	r24, 0x01C7	; 0x8001c7 <x1226+0x4>
    1af4:	0e 94 fe 0e 	call	0x1dfc	; 0x1dfc <bcd2dec>
    1af8:	80 93 94 03 	sts	0x0394, r24	; 0x800394 <rtc+0x5>
				rtc.month = bcd2dec(x1226.ccr.month);
    1afc:	80 91 c8 01 	lds	r24, 0x01C8	; 0x8001c8 <x1226+0x5>
    1b00:	0e 94 fe 0e 	call	0x1dfc	; 0x1dfc <bcd2dec>
    1b04:	80 93 95 03 	sts	0x0395, r24	; 0x800395 <rtc+0x6>
				rtc.year = bcd2dec(x1226.ccr.year);
    1b08:	80 91 c9 01 	lds	r24, 0x01C9	; 0x8001c9 <x1226+0x6>
    1b0c:	0e 94 fe 0e 	call	0x1dfc	; 0x1dfc <bcd2dec>
    1b10:	80 93 96 03 	sts	0x0396, r24	; 0x800396 <rtc+0x7>
				// Goto default work state
				FSM_state = FSM_X1226_STATE_IDLE;
    1b14:	10 92 d1 01 	sts	0x01D1, r1	; 0x8001d1 <FSM_state>
    1b18:	16 c0       	rjmp	.+44     	; 0x1b46 <FSM_X1226_Process+0x240>
			return;
		}

		case FSM_X1226_STATE_IDLE: {
			
			if(!rtc._presence) {
    1b1a:	80 91 8f 03 	lds	r24, 0x038F	; 0x80038f <rtc>
    1b1e:	88 23       	and	r24, r24
    1b20:	91 f0       	breq	.+36     	; 0x1b46 <FSM_X1226_Process+0x240>
				return;
			}
			
			if(x1226.init_type != X1226_INIT_TYPE_NO_NEED) {
    1b22:	80 91 c3 01 	lds	r24, 0x01C3	; 0x8001c3 <x1226>
    1b26:	88 23       	and	r24, r24
    1b28:	11 f0       	breq	.+4      	; 0x1b2e <FSM_X1226_Process+0x228>
				//
				FSM_state = FSM_X1226_STATE_ENABLE_CCR_WRITE_ACCESS_STEP1;
    1b2a:	84 e0       	ldi	r24, 0x04	; 4
    1b2c:	18 cf       	rjmp	.-464    	; 0x195e <FSM_X1226_Process+0x58>
				return;
			}
						
			if(_read_enabled && GetTimer(TIMER_X1226) >= X1226_DATA_READ_PERIOD) {
    1b2e:	83 e0       	ldi	r24, 0x03	; 3
    1b30:	0e 94 6c 0e 	call	0x1cd8	; 0x1cd8 <GetTimer>
    1b34:	84 3f       	cpi	r24, 0xF4	; 244
    1b36:	91 40       	sbci	r25, 0x01	; 1
    1b38:	30 f0       	brcs	.+12     	; 0x1b46 <FSM_X1226_Process+0x240>
				FSM_state = FSM_X1226_STATE_READ_CCR_DATA;
    1b3a:	89 e0       	ldi	r24, 0x09	; 9
    1b3c:	80 93 d1 01 	sts	0x01D1, r24	; 0x8001d1 <FSM_state>
				ResetTimer(TIMER_X1226);
    1b40:	83 e0       	ldi	r24, 0x03	; 3
    1b42:	0e 94 75 0e 	call	0x1cea	; 0x1cea <ResetTimer>



		default: break;
	}
}
    1b46:	0f 90       	pop	r0
    1b48:	df 91       	pop	r29
    1b4a:	cf 91       	pop	r28
    1b4c:	1f 91       	pop	r17
    1b4e:	0f 91       	pop	r16
    1b50:	ff 90       	pop	r15
    1b52:	08 95       	ret

00001b54 <InitMessages>:

/************************************************************************/
/* FUNCTIONS                                                            */
/************************************************************************/
void InitMessages(void)
{
    1b54:	80 e0       	ldi	r24, 0x00	; 0
    1b56:	90 e0       	ldi	r25, 0x00	; 0
	for(uint8_t i=0;i<MAX_MESSAGES;i++) {
		Messages[i].Msg = MSG_STATE_INACTIVE;
    1b58:	fc 01       	movw	r30, r24
    1b5a:	ee 0f       	add	r30, r30
    1b5c:	ff 1f       	adc	r31, r31
    1b5e:	e8 0f       	add	r30, r24
    1b60:	f9 1f       	adc	r31, r25
    1b62:	ed 54       	subi	r30, 0x4D	; 77
    1b64:	fc 4f       	sbci	r31, 0xFC	; 252
    1b66:	10 82       	st	Z, r1
    1b68:	01 96       	adiw	r24, 0x01	; 1
/************************************************************************/
/* FUNCTIONS                                                            */
/************************************************************************/
void InitMessages(void)
{
	for(uint8_t i=0;i<MAX_MESSAGES;i++) {
    1b6a:	8a 30       	cpi	r24, 0x0A	; 10
    1b6c:	91 05       	cpc	r25, r1
    1b6e:	a1 f7       	brne	.-24     	; 0x1b58 <InitMessages+0x4>
		Messages[i].Msg = MSG_STATE_INACTIVE;
	}
	#ifdef USE_BC_MESSAGES
	for (uint8_t i=0; i<MAX_BC_MESSAGES; i++) {
		BroadcastMessages[i] = MSG_STATE_INACTIVE;
    1b70:	10 92 b0 03 	sts	0x03B0, r1	; 0x8003b0 <BroadcastMessages>
    1b74:	10 92 b1 03 	sts	0x03B1, r1	; 0x8003b1 <BroadcastMessages+0x1>
    1b78:	10 92 b2 03 	sts	0x03B2, r1	; 0x8003b2 <BroadcastMessages+0x2>
    1b7c:	08 95       	ret

00001b7e <SendMessageWParam>:
	#endif
}

void SendMessageWParam(uint8_t Msg, void * pParams)
{
	if(Messages[Msg].Msg == MSG_STATE_INACTIVE) {
    1b7e:	90 e0       	ldi	r25, 0x00	; 0
    1b80:	fc 01       	movw	r30, r24
    1b82:	ee 0f       	add	r30, r30
    1b84:	ff 1f       	adc	r31, r31
    1b86:	8e 0f       	add	r24, r30
    1b88:	9f 1f       	adc	r25, r31
    1b8a:	fc 01       	movw	r30, r24
    1b8c:	ed 54       	subi	r30, 0x4D	; 77
    1b8e:	fc 4f       	sbci	r31, 0xFC	; 252
    1b90:	80 81       	ld	r24, Z
    1b92:	81 11       	cpse	r24, r1
    1b94:	04 c0       	rjmp	.+8      	; 0x1b9e <SendMessageWParam+0x20>
		Messages[Msg].Msg = MSG_STATE_SET;
    1b96:	81 e0       	ldi	r24, 0x01	; 1
    1b98:	80 83       	st	Z, r24
		Messages[Msg].pParams = pParams;
    1b9a:	72 83       	std	Z+2, r23	; 0x02
    1b9c:	61 83       	std	Z+1, r22	; 0x01
    1b9e:	08 95       	ret

00001ba0 <SendMessageWOParam>:
	}
}

void SendMessageWOParam(uint8_t Msg)
{
	if(Messages[Msg].Msg == MSG_STATE_INACTIVE) {
    1ba0:	90 e0       	ldi	r25, 0x00	; 0
    1ba2:	fc 01       	movw	r30, r24
    1ba4:	ee 0f       	add	r30, r30
    1ba6:	ff 1f       	adc	r31, r31
    1ba8:	8e 0f       	add	r24, r30
    1baa:	9f 1f       	adc	r25, r31
    1bac:	fc 01       	movw	r30, r24
    1bae:	ed 54       	subi	r30, 0x4D	; 77
    1bb0:	fc 4f       	sbci	r31, 0xFC	; 252
    1bb2:	80 81       	ld	r24, Z
    1bb4:	81 11       	cpse	r24, r1
    1bb6:	02 c0       	rjmp	.+4      	; 0x1bbc <SendMessageWOParam+0x1c>
		Messages[Msg].Msg = MSG_STATE_SET;
    1bb8:	81 e0       	ldi	r24, 0x01	; 1
    1bba:	80 83       	st	Z, r24
    1bbc:	08 95       	ret

00001bbe <GetMessage>:
	}
}

uint8_t GetMessage(uint8_t Msg)
{
	if(Messages[Msg].Msg == MSG_STATE_ACTIVE) {
    1bbe:	90 e0       	ldi	r25, 0x00	; 0
    1bc0:	fc 01       	movw	r30, r24
    1bc2:	ee 0f       	add	r30, r30
    1bc4:	ff 1f       	adc	r31, r31
    1bc6:	8e 0f       	add	r24, r30
    1bc8:	9f 1f       	adc	r25, r31
    1bca:	fc 01       	movw	r30, r24
    1bcc:	ed 54       	subi	r30, 0x4D	; 77
    1bce:	fc 4f       	sbci	r31, 0xFC	; 252
    1bd0:	80 81       	ld	r24, Z
    1bd2:	82 30       	cpi	r24, 0x02	; 2
    1bd4:	19 f4       	brne	.+6      	; 0x1bdc <GetMessage+0x1e>
		Messages[Msg].Msg = MSG_STATE_INACTIVE;
    1bd6:	10 82       	st	Z, r1
		return 1;
    1bd8:	81 e0       	ldi	r24, 0x01	; 1
    1bda:	08 95       	ret
	}
	return 0;
    1bdc:	80 e0       	ldi	r24, 0x00	; 0
}
    1bde:	08 95       	ret

00001be0 <GetMessageParam>:

void * GetMessageParam(uint8_t Msg)
{
	return Messages[Msg].pParams;
    1be0:	90 e0       	ldi	r25, 0x00	; 0
    1be2:	fc 01       	movw	r30, r24
    1be4:	ee 0f       	add	r30, r30
    1be6:	ff 1f       	adc	r31, r31
    1be8:	8e 0f       	add	r24, r30
    1bea:	9f 1f       	adc	r25, r31
    1bec:	fc 01       	movw	r30, r24
    1bee:	ed 54       	subi	r30, 0x4D	; 77
    1bf0:	fc 4f       	sbci	r31, 0xFC	; 252
    1bf2:	81 81       	ldd	r24, Z+1	; 0x01
    1bf4:	92 81       	ldd	r25, Z+2	; 0x02
}
    1bf6:	08 95       	ret

00001bf8 <SendBCMessage>:

#ifdef USE_BC_MESSAGES
void SendBCMessage(uint8_t Msg)
{
	if (BroadcastMessages[Msg] == MSG_STATE_INACTIVE) {
    1bf8:	e8 2f       	mov	r30, r24
    1bfa:	f0 e0       	ldi	r31, 0x00	; 0
    1bfc:	e0 55       	subi	r30, 0x50	; 80
    1bfe:	fc 4f       	sbci	r31, 0xFC	; 252
    1c00:	80 81       	ld	r24, Z
    1c02:	81 11       	cpse	r24, r1
    1c04:	02 c0       	rjmp	.+4      	; 0x1c0a <SendBCMessage+0x12>
		BroadcastMessages[Msg] = MSG_STATE_SET;
    1c06:	81 e0       	ldi	r24, 0x01	; 1
    1c08:	80 83       	st	Z, r24
    1c0a:	08 95       	ret

00001c0c <GetBCMessage>:
	}
}

uint8_t GetBCMessage(uint8_t Msg)
{
	if (BroadcastMessages[Msg] == MSG_STATE_ACTIVE) {
    1c0c:	e8 2f       	mov	r30, r24
    1c0e:	f0 e0       	ldi	r31, 0x00	; 0
    1c10:	e0 55       	subi	r30, 0x50	; 80
    1c12:	fc 4f       	sbci	r31, 0xFC	; 252
    1c14:	90 81       	ld	r25, Z
    1c16:	81 e0       	ldi	r24, 0x01	; 1
    1c18:	92 30       	cpi	r25, 0x02	; 2
    1c1a:	09 f0       	breq	.+2      	; 0x1c1e <GetBCMessage+0x12>
    1c1c:	80 e0       	ldi	r24, 0x00	; 0
		return 1;
	}
	return 0;
}
    1c1e:	08 95       	ret

00001c20 <ProcessMessages>:
#endif


void ProcessMessages(void)
{
	ATOMIC_BLOCK(ATOMIC_RESTORESTATE) {
    1c20:	2f b7       	in	r18, 0x3f	; 63
    return 1;
}

static __inline__ uint8_t __iCliRetVal(void)
{
    cli();
    1c22:	f8 94       	cli
    1c24:	80 e0       	ldi	r24, 0x00	; 0
    1c26:	90 e0       	ldi	r25, 0x00	; 0
		for (uint8_t i=0; i<MAX_MESSAGES; i++) {
			if (Messages[i].Msg == MSG_STATE_ACTIVE) Messages[i].Msg = MSG_STATE_INACTIVE;
			if (Messages[i].Msg == MSG_STATE_SET) Messages[i].Msg = MSG_STATE_ACTIVE;
    1c28:	32 e0       	ldi	r19, 0x02	; 2

void ProcessMessages(void)
{
	ATOMIC_BLOCK(ATOMIC_RESTORESTATE) {
		for (uint8_t i=0; i<MAX_MESSAGES; i++) {
			if (Messages[i].Msg == MSG_STATE_ACTIVE) Messages[i].Msg = MSG_STATE_INACTIVE;
    1c2a:	fc 01       	movw	r30, r24
    1c2c:	ee 0f       	add	r30, r30
    1c2e:	ff 1f       	adc	r31, r31
    1c30:	df 01       	movw	r26, r30
    1c32:	a8 0f       	add	r26, r24
    1c34:	b9 1f       	adc	r27, r25
    1c36:	ad 54       	subi	r26, 0x4D	; 77
    1c38:	bc 4f       	sbci	r27, 0xFC	; 252
    1c3a:	4c 91       	ld	r20, X
    1c3c:	42 30       	cpi	r20, 0x02	; 2
    1c3e:	09 f4       	brne	.+2      	; 0x1c42 <ProcessMessages+0x22>
    1c40:	1c 92       	st	X, r1
			if (Messages[i].Msg == MSG_STATE_SET) Messages[i].Msg = MSG_STATE_ACTIVE;
    1c42:	e8 0f       	add	r30, r24
    1c44:	f9 1f       	adc	r31, r25
    1c46:	ed 54       	subi	r30, 0x4D	; 77
    1c48:	fc 4f       	sbci	r31, 0xFC	; 252
    1c4a:	40 81       	ld	r20, Z
    1c4c:	41 30       	cpi	r20, 0x01	; 1
    1c4e:	09 f4       	brne	.+2      	; 0x1c52 <ProcessMessages+0x32>
    1c50:	30 83       	st	Z, r19
    1c52:	01 96       	adiw	r24, 0x01	; 1


void ProcessMessages(void)
{
	ATOMIC_BLOCK(ATOMIC_RESTORESTATE) {
		for (uint8_t i=0; i<MAX_MESSAGES; i++) {
    1c54:	8a 30       	cpi	r24, 0x0A	; 10
    1c56:	91 05       	cpc	r25, r1
    1c58:	41 f7       	brne	.-48     	; 0x1c2a <ProcessMessages+0xa>
    1c5a:	80 e0       	ldi	r24, 0x00	; 0
    1c5c:	90 e0       	ldi	r25, 0x00	; 0
			if (Messages[i].Msg == MSG_STATE_SET) Messages[i].Msg = MSG_STATE_ACTIVE;
		}
		#ifdef USE_BC_MESSAGES
		for (uint8_t i=0; i<MAX_BC_MESSAGES; i++) {
			if (BroadcastMessages[i] == MSG_STATE_ACTIVE) BroadcastMessages[i] = MSG_STATE_INACTIVE;
			if (BroadcastMessages[i] == MSG_STATE_SET) BroadcastMessages[i] = MSG_STATE_ACTIVE;
    1c5e:	32 e0       	ldi	r19, 0x02	; 2
			if (Messages[i].Msg == MSG_STATE_ACTIVE) Messages[i].Msg = MSG_STATE_INACTIVE;
			if (Messages[i].Msg == MSG_STATE_SET) Messages[i].Msg = MSG_STATE_ACTIVE;
		}
		#ifdef USE_BC_MESSAGES
		for (uint8_t i=0; i<MAX_BC_MESSAGES; i++) {
			if (BroadcastMessages[i] == MSG_STATE_ACTIVE) BroadcastMessages[i] = MSG_STATE_INACTIVE;
    1c60:	fc 01       	movw	r30, r24
    1c62:	e0 55       	subi	r30, 0x50	; 80
    1c64:	fc 4f       	sbci	r31, 0xFC	; 252
    1c66:	40 81       	ld	r20, Z
    1c68:	42 30       	cpi	r20, 0x02	; 2
    1c6a:	09 f4       	brne	.+2      	; 0x1c6e <ProcessMessages+0x4e>
    1c6c:	10 82       	st	Z, r1
			if (BroadcastMessages[i] == MSG_STATE_SET) BroadcastMessages[i] = MSG_STATE_ACTIVE;
    1c6e:	40 81       	ld	r20, Z
    1c70:	41 30       	cpi	r20, 0x01	; 1
    1c72:	09 f4       	brne	.+2      	; 0x1c76 <ProcessMessages+0x56>
    1c74:	30 83       	st	Z, r19
    1c76:	01 96       	adiw	r24, 0x01	; 1
		for (uint8_t i=0; i<MAX_MESSAGES; i++) {
			if (Messages[i].Msg == MSG_STATE_ACTIVE) Messages[i].Msg = MSG_STATE_INACTIVE;
			if (Messages[i].Msg == MSG_STATE_SET) Messages[i].Msg = MSG_STATE_ACTIVE;
		}
		#ifdef USE_BC_MESSAGES
		for (uint8_t i=0; i<MAX_BC_MESSAGES; i++) {
    1c78:	83 30       	cpi	r24, 0x03	; 3
    1c7a:	91 05       	cpc	r25, r1
    1c7c:	89 f7       	brne	.-30     	; 0x1c60 <ProcessMessages+0x40>
    (void)__s;
}

static __inline__ void __iRestore(const  uint8_t *__s)
{
    SREG = *__s;
    1c7e:	2f bf       	out	0x3f, r18	; 63
    __asm__ volatile ("" ::: "memory");
    1c80:	08 95       	ret

00001c82 <InitTimers>:

/************************************************************************/
/* FUNCTIONS                                                            */
/************************************************************************/
void InitTimers(void)
{
    1c82:	80 e0       	ldi	r24, 0x00	; 0
    1c84:	90 e0       	ldi	r25, 0x00	; 0
	for(uint8_t i=0;i<MAX_TIMERS;i++) {
		Timers[i] = 0;
    1c86:	fc 01       	movw	r30, r24
    1c88:	ee 0f       	add	r30, r30
    1c8a:	ff 1f       	adc	r31, r31
    1c8c:	ee 52       	subi	r30, 0x2E	; 46
    1c8e:	fe 4f       	sbci	r31, 0xFE	; 254
    1c90:	11 82       	std	Z+1, r1	; 0x01
    1c92:	10 82       	st	Z, r1
    1c94:	01 96       	adiw	r24, 0x01	; 1
/************************************************************************/
/* FUNCTIONS                                                            */
/************************************************************************/
void InitTimers(void)
{
	for(uint8_t i=0;i<MAX_TIMERS;i++) {
    1c96:	8a 30       	cpi	r24, 0x0A	; 10
    1c98:	91 05       	cpc	r25, r1
    1c9a:	a9 f7       	brne	.-22     	; 0x1c86 <InitTimers+0x4>
	for(uint8_t i=0;i<MAX_GTIMERS;i++) {
		GTimers[i] = 0;
		GTStates[i] = TIMER_STOPPED;
	}
	#endif
}
    1c9c:	08 95       	ret

00001c9e <ProcessTimers>:

void ProcessTimers(uint8_t * tick) {
	uint8_t x = *tick;
    1c9e:	fc 01       	movw	r30, r24
    1ca0:	40 81       	ld	r20, Z

	ATOMIC_BLOCK(ATOMIC_RESTORESTATE) {
    1ca2:	af b7       	in	r26, 0x3f	; 63
    return 1;
}

static __inline__ uint8_t __iCliRetVal(void)
{
    cli();
    1ca4:	f8 94       	cli
		if (x > 0) {
    1ca6:	44 23       	and	r20, r20
    1ca8:	a9 f0       	breq	.+42     	; 0x1cd4 <ProcessTimers+0x36>
    1caa:	20 e0       	ldi	r18, 0x00	; 0
    1cac:	30 e0       	ldi	r19, 0x00	; 0
			for (uint8_t i=0; i<MAX_TIMERS; i++) {
				Timers[i] += x;
    1cae:	50 e0       	ldi	r21, 0x00	; 0
    1cb0:	f9 01       	movw	r30, r18
    1cb2:	ee 0f       	add	r30, r30
    1cb4:	ff 1f       	adc	r31, r31
    1cb6:	ee 52       	subi	r30, 0x2E	; 46
    1cb8:	fe 4f       	sbci	r31, 0xFE	; 254
    1cba:	60 81       	ld	r22, Z
    1cbc:	71 81       	ldd	r23, Z+1	; 0x01
    1cbe:	64 0f       	add	r22, r20
    1cc0:	75 1f       	adc	r23, r21
    1cc2:	71 83       	std	Z+1, r23	; 0x01
    1cc4:	60 83       	st	Z, r22
    1cc6:	2f 5f       	subi	r18, 0xFF	; 255
    1cc8:	3f 4f       	sbci	r19, 0xFF	; 255
void ProcessTimers(uint8_t * tick) {
	uint8_t x = *tick;

	ATOMIC_BLOCK(ATOMIC_RESTORESTATE) {
		if (x > 0) {
			for (uint8_t i=0; i<MAX_TIMERS; i++) {
    1cca:	2a 30       	cpi	r18, 0x0A	; 10
    1ccc:	31 05       	cpc	r19, r1
    1cce:	81 f7       	brne	.-32     	; 0x1cb0 <ProcessTimers+0x12>
				if (GTStates[i] == TIMER_RUNNING) {
					GTimers[i] += (uint16_t)x;
				}
				#endif
			}
			*tick = 0;
    1cd0:	fc 01       	movw	r30, r24
    1cd2:	10 82       	st	Z, r1
    (void)__s;
}

static __inline__ void __iRestore(const  uint8_t *__s)
{
    SREG = *__s;
    1cd4:	af bf       	out	0x3f, r26	; 63
    __asm__ volatile ("" ::: "memory");
    1cd6:	08 95       	ret

00001cd8 <GetTimer>:
		}
	}
}

uint16_t GetTimer(uint8_t Timer) {
	return Timers[Timer];
    1cd8:	e8 2f       	mov	r30, r24
    1cda:	f0 e0       	ldi	r31, 0x00	; 0
    1cdc:	ee 0f       	add	r30, r30
    1cde:	ff 1f       	adc	r31, r31
    1ce0:	ee 52       	subi	r30, 0x2E	; 46
    1ce2:	fe 4f       	sbci	r31, 0xFE	; 254
    1ce4:	80 81       	ld	r24, Z
    1ce6:	91 81       	ldd	r25, Z+1	; 0x01
}
    1ce8:	08 95       	ret

00001cea <ResetTimer>:

void ResetTimer(uint8_t Timer) {
	Timers[Timer] = 0;
    1cea:	e8 2f       	mov	r30, r24
    1cec:	f0 e0       	ldi	r31, 0x00	; 0
    1cee:	ee 0f       	add	r30, r30
    1cf0:	ff 1f       	adc	r31, r31
    1cf2:	ee 52       	subi	r30, 0x2E	; 46
    1cf4:	fe 4f       	sbci	r31, 0xFE	; 254
    1cf6:	11 82       	std	Z+1, r1	; 0x01
    1cf8:	10 82       	st	Z, r1
    1cfa:	08 95       	ret

00001cfc <utoa_cycle_sub8>:



/* Hex to BCD char */
char * utoa_cycle_sub8(uint8_t value, char *buffer, uint8_t _trim_zero, uint8_t max_value_length)
{
    1cfc:	cf 93       	push	r28
    1cfe:	df 93       	push	r29
    1d00:	db 01       	movw	r26, r22
    1d02:	ea ee       	ldi	r30, 0xEA	; 234
    1d04:	f1 e0       	ldi	r31, 0x01	; 1
    1d06:	eb 01       	movw	r28, r22
    1d08:	6d 5f       	subi	r22, 0xFD	; 253
    1d0a:	7f 4f       	sbci	r23, 0xFF	; 255
	char *ptr = buffer;
	for(uint8_t i=0;i<3;i++) {
		uint8_t pow3 = pgm_read_byte(pow3Table8 + i);
    1d0c:	34 91       	lpm	r19, Z
		uint8_t count = 0;
    1d0e:	90 e0       	ldi	r25, 0x00	; 0
		while(value >= pow3) {
    1d10:	83 17       	cp	r24, r19
    1d12:	18 f0       	brcs	.+6      	; 0x1d1a <utoa_cycle_sub8+0x1e>
			count ++;
    1d14:	9f 5f       	subi	r25, 0xFF	; 255
			value -= pow3;
    1d16:	83 1b       	sub	r24, r19
    1d18:	fb cf       	rjmp	.-10     	; 0x1d10 <utoa_cycle_sub8+0x14>
		}
		// Store digit char to buffer current position
		*ptr++ = count + '0';
    1d1a:	90 5d       	subi	r25, 0xD0	; 208
    1d1c:	99 93       	st	Y+, r25
    1d1e:	31 96       	adiw	r30, 0x01	; 1

/* Hex to BCD char */
char * utoa_cycle_sub8(uint8_t value, char *buffer, uint8_t _trim_zero, uint8_t max_value_length)
{
	char *ptr = buffer;
	for(uint8_t i=0;i<3;i++) {
    1d20:	c6 17       	cp	r28, r22
    1d22:	d7 07       	cpc	r29, r23
    1d24:	99 f7       	brne	.-26     	; 0x1d0c <utoa_cycle_sub8+0x10>
		}
		// Store digit char to buffer current position
		*ptr++ = count + '0';
	}
	// Store last char as EOL
	*ptr = 0;
    1d26:	13 96       	adiw	r26, 0x03	; 3
    1d28:	1c 92       	st	X, r1
    1d2a:	13 97       	sbiw	r26, 0x03	; 3
	
	// Replace first zero to space
	if(_trim_zero) {
    1d2c:	44 23       	and	r20, r20
    1d2e:	69 f0       	breq	.+26     	; 0x1d4a <utoa_cycle_sub8+0x4e>
		for(uint8_t i=0;i<2; i++) {
			if(buffer[i] == '0') {
    1d30:	8c 91       	ld	r24, X
    1d32:	80 33       	cpi	r24, 0x30	; 48
    1d34:	51 f4       	brne	.+20     	; 0x1d4a <utoa_cycle_sub8+0x4e>
				buffer[i] = ' ';
    1d36:	80 e2       	ldi	r24, 0x20	; 32
    1d38:	8c 93       	st	X, r24
	*ptr = 0;
	
	// Replace first zero to space
	if(_trim_zero) {
		for(uint8_t i=0;i<2; i++) {
			if(buffer[i] == '0') {
    1d3a:	11 96       	adiw	r26, 0x01	; 1
    1d3c:	9c 91       	ld	r25, X
    1d3e:	11 97       	sbiw	r26, 0x01	; 1
    1d40:	90 33       	cpi	r25, 0x30	; 48
    1d42:	19 f4       	brne	.+6      	; 0x1d4a <utoa_cycle_sub8+0x4e>
				buffer[i] = ' ';
    1d44:	11 96       	adiw	r26, 0x01	; 1
    1d46:	8c 93       	st	X, r24
    1d48:	11 97       	sbiw	r26, 0x01	; 1
			}
			break;
		}
	}
	// Trim buffer length to max_value_length
	for(uint8_t i=0; i<(3 - max_value_length); i++) {
    1d4a:	cd 01       	movw	r24, r26
    1d4c:	43 e0       	ldi	r20, 0x03	; 3
    1d4e:	50 e0       	ldi	r21, 0x00	; 0
    1d50:	ba 01       	movw	r22, r20
    1d52:	62 1b       	sub	r22, r18
    1d54:	71 09       	sbc	r23, r1
    1d56:	9b 01       	movw	r18, r22
    1d58:	48 2f       	mov	r20, r24
    1d5a:	4a 1b       	sub	r20, r26
    1d5c:	50 e0       	ldi	r21, 0x00	; 0
    1d5e:	42 17       	cp	r20, r18
    1d60:	53 07       	cpc	r21, r19
    1d62:	14 f4       	brge	.+4      	; 0x1d68 <utoa_cycle_sub8+0x6c>
		++buffer;
    1d64:	01 96       	adiw	r24, 0x01	; 1
    1d66:	f8 cf       	rjmp	.-16     	; 0x1d58 <utoa_cycle_sub8+0x5c>
	}
	return buffer;
}
    1d68:	df 91       	pop	r29
    1d6a:	cf 91       	pop	r28
    1d6c:	08 95       	ret

00001d6e <utoa_cycle_sub16>:

/* Hex to BCD uint16_t */
char * utoa_cycle_sub16(uint16_t value, char *buffer, uint8_t max_value_length)
{
    1d6e:	cf 92       	push	r12
    1d70:	df 92       	push	r13
    1d72:	ef 92       	push	r14
    1d74:	ff 92       	push	r15
    1d76:	0f 93       	push	r16
    1d78:	1f 93       	push	r17
    1d7a:	cf 93       	push	r28
    1d7c:	df 93       	push	r29
    1d7e:	8c 01       	movw	r16, r24
    1d80:	20 ee       	ldi	r18, 0xE0	; 224
    1d82:	31 e0       	ldi	r19, 0x01	; 1
    1d84:	db 01       	movw	r26, r22
    1d86:	6b 01       	movw	r12, r22
    1d88:	85 e0       	ldi	r24, 0x05	; 5
    1d8a:	c8 0e       	add	r12, r24
    1d8c:	d1 1c       	adc	r13, r1
    1d8e:	eb 01       	movw	r28, r22
	char *ptr = buffer;
	for(uint8_t i=0; i<5; i++) {
		uint16_t pow5 = pgm_read_word(pow5Table16 + i);
    1d90:	f9 01       	movw	r30, r18
    1d92:	e5 90       	lpm	r14, Z+
    1d94:	f4 90       	lpm	r15, Z
		uint8_t count = 0;
    1d96:	90 e0       	ldi	r25, 0x00	; 0
		while(value >= pow5) {
    1d98:	0e 15       	cp	r16, r14
    1d9a:	1f 05       	cpc	r17, r15
    1d9c:	20 f0       	brcs	.+8      	; 0x1da6 <utoa_cycle_sub16+0x38>
			count++;
    1d9e:	9f 5f       	subi	r25, 0xFF	; 255
			value -= pow5;
    1da0:	0e 19       	sub	r16, r14
    1da2:	1f 09       	sbc	r17, r15
    1da4:	f9 cf       	rjmp	.-14     	; 0x1d98 <utoa_cycle_sub16+0x2a>
		}
		// Store digit char to buffer current position
		*ptr++ = count + '0';
    1da6:	90 5d       	subi	r25, 0xD0	; 208
    1da8:	99 93       	st	Y+, r25
    1daa:	2e 5f       	subi	r18, 0xFE	; 254
    1dac:	3f 4f       	sbci	r19, 0xFF	; 255

/* Hex to BCD uint16_t */
char * utoa_cycle_sub16(uint16_t value, char *buffer, uint8_t max_value_length)
{
	char *ptr = buffer;
	for(uint8_t i=0; i<5; i++) {
    1dae:	cc 15       	cp	r28, r12
    1db0:	dd 05       	cpc	r29, r13
    1db2:	71 f7       	brne	.-36     	; 0x1d90 <utoa_cycle_sub16+0x22>
		}
		// Store digit char to buffer current position
		*ptr++ = count + '0';
	}
	// Store last char as EOL
	*ptr = 0;
    1db4:	fb 01       	movw	r30, r22
    1db6:	15 82       	std	Z+5, r1	; 0x05
    1db8:	cb 01       	movw	r24, r22
    1dba:	04 96       	adiw	r24, 0x04	; 4

	// Replace first zero to space
	for(uint8_t i=0;i<4; i++) {
		if(buffer[i] == '0') {
			buffer[i] = ' ';
    1dbc:	20 e2       	ldi	r18, 0x20	; 32
	// Store last char as EOL
	*ptr = 0;

	// Replace first zero to space
	for(uint8_t i=0;i<4; i++) {
		if(buffer[i] == '0') {
    1dbe:	3c 91       	ld	r19, X
    1dc0:	30 33       	cpi	r19, 0x30	; 48
    1dc2:	31 f0       	breq	.+12     	; 0x1dd0 <utoa_cycle_sub16+0x62>
char * utoa_cycle_sub16(uint16_t value, char *buffer, uint8_t max_value_length)
{
	char *ptr = buffer;
	for(uint8_t i=0; i<5; i++) {
		uint16_t pow5 = pgm_read_word(pow5Table16 + i);
		uint8_t count = 0;
    1dc4:	cb 01       	movw	r24, r22
			continue;
		}
		break;
	}
	// Trim buffer length to max_value_length
	for(uint8_t i=0; i<(5 - max_value_length); i++) {
    1dc6:	25 e0       	ldi	r18, 0x05	; 5
    1dc8:	30 e0       	ldi	r19, 0x00	; 0
    1dca:	24 1b       	sub	r18, r20
    1dcc:	31 09       	sbc	r19, r1
    1dce:	05 c0       	rjmp	.+10     	; 0x1dda <utoa_cycle_sub16+0x6c>
	*ptr = 0;

	// Replace first zero to space
	for(uint8_t i=0;i<4; i++) {
		if(buffer[i] == '0') {
			buffer[i] = ' ';
    1dd0:	2d 93       	st	X+, r18
	}
	// Store last char as EOL
	*ptr = 0;

	// Replace first zero to space
	for(uint8_t i=0;i<4; i++) {
    1dd2:	8a 17       	cp	r24, r26
    1dd4:	9b 07       	cpc	r25, r27
    1dd6:	b1 f3       	breq	.-20     	; 0x1dc4 <utoa_cycle_sub16+0x56>
    1dd8:	f2 cf       	rjmp	.-28     	; 0x1dbe <utoa_cycle_sub16+0x50>
			continue;
		}
		break;
	}
	// Trim buffer length to max_value_length
	for(uint8_t i=0; i<(5 - max_value_length); i++) {
    1dda:	48 2f       	mov	r20, r24
    1ddc:	46 1b       	sub	r20, r22
    1dde:	50 e0       	ldi	r21, 0x00	; 0
    1de0:	42 17       	cp	r20, r18
    1de2:	53 07       	cpc	r21, r19
    1de4:	14 f4       	brge	.+4      	; 0x1dea <utoa_cycle_sub16+0x7c>
		++buffer;
    1de6:	01 96       	adiw	r24, 0x01	; 1
    1de8:	f8 cf       	rjmp	.-16     	; 0x1dda <utoa_cycle_sub16+0x6c>
	}
	return buffer;
}
    1dea:	df 91       	pop	r29
    1dec:	cf 91       	pop	r28
    1dee:	1f 91       	pop	r17
    1df0:	0f 91       	pop	r16
    1df2:	ff 90       	pop	r15
    1df4:	ef 90       	pop	r14
    1df6:	df 90       	pop	r13
    1df8:	cf 90       	pop	r12
    1dfa:	08 95       	ret

00001dfc <bcd2dec>:

/* Convert BCD value into decimal */
uint8_t bcd2dec(uint8_t val)
{
	return (val & 0xF) + ((val & 0xF0) >> 4)*10;
    1dfc:	98 2f       	mov	r25, r24
    1dfe:	92 95       	swap	r25
    1e00:	9f 70       	andi	r25, 0x0F	; 15
    1e02:	8f 70       	andi	r24, 0x0F	; 15
}
    1e04:	2a e0       	ldi	r18, 0x0A	; 10
    1e06:	92 9f       	mul	r25, r18
    1e08:	80 0d       	add	r24, r0
    1e0a:	11 24       	eor	r1, r1
    1e0c:	08 95       	ret

00001e0e <dec2bcd>:

/* Convert decimal value into BCD */
uint8_t dec2bcd(uint8_t val)
{
	return (val % 10) + ((val / 10) << 4);
    1e0e:	6a e0       	ldi	r22, 0x0A	; 10
    1e10:	0e 94 87 10 	call	0x210e	; 0x210e <__udivmodqi4>
}
    1e14:	20 e1       	ldi	r18, 0x10	; 16
    1e16:	82 9f       	mul	r24, r18
    1e18:	90 0d       	add	r25, r0
    1e1a:	11 24       	eor	r1, r1
    1e1c:	89 2f       	mov	r24, r25
    1e1e:	08 95       	ret

00001e20 <__vector_7>:
/* Functions prototypes */
void InitGPIO(void);

//------------------------------ System tick interrupt
ISR(TIMER2_COMPA_vect)
{
    1e20:	1f 92       	push	r1
    1e22:	0f 92       	push	r0
    1e24:	0f b6       	in	r0, 0x3f	; 63
    1e26:	0f 92       	push	r0
    1e28:	11 24       	eor	r1, r1
    1e2a:	8f 93       	push	r24
	systick++;
    1e2c:	80 91 e6 01 	lds	r24, 0x01E6	; 0x8001e6 <systick>
    1e30:	8f 5f       	subi	r24, 0xFF	; 255
    1e32:	80 93 e6 01 	sts	0x01E6, r24	; 0x8001e6 <systick>
}
    1e36:	8f 91       	pop	r24
    1e38:	0f 90       	pop	r0
    1e3a:	0f be       	out	0x3f, r0	; 63
    1e3c:	0f 90       	pop	r0
    1e3e:	1f 90       	pop	r1
    1e40:	18 95       	reti

00001e42 <__vector_1>:

//------------------------------ INT0 interrupt
ISR(INT0_vect)
{
    1e42:	1f 92       	push	r1
    1e44:	0f 92       	push	r0
    1e46:	0f b6       	in	r0, 0x3f	; 63
    1e48:	0f 92       	push	r0
    1e4a:	11 24       	eor	r1, r1
    1e4c:	8f 93       	push	r24
    1e4e:	9f 93       	push	r25
    1e50:	ef 93       	push	r30
    1e52:	ff 93       	push	r31
	// Toggle external rtc clock
	device._ext_clock ^= 0x1;
    1e54:	e9 ea       	ldi	r30, 0xA9	; 169
    1e56:	f3 e0       	ldi	r31, 0x03	; 3
    1e58:	90 81       	ld	r25, Z
    1e5a:	81 e0       	ldi	r24, 0x01	; 1
    1e5c:	89 27       	eor	r24, r25
    1e5e:	80 83       	st	Z, r24
}
    1e60:	ff 91       	pop	r31
    1e62:	ef 91       	pop	r30
    1e64:	9f 91       	pop	r25
    1e66:	8f 91       	pop	r24
    1e68:	0f 90       	pop	r0
    1e6a:	0f be       	out	0x3f, r0	; 63
    1e6c:	0f 90       	pop	r0
    1e6e:	1f 90       	pop	r1
    1e70:	18 95       	reti

00001e72 <__vector_18>:

//------------------------------ USART RX Interrupt vector
ISR(USART_RX_vect)
{
    1e72:	1f 92       	push	r1
    1e74:	0f 92       	push	r0
    1e76:	0f b6       	in	r0, 0x3f	; 63
    1e78:	0f 92       	push	r0
    1e7a:	11 24       	eor	r1, r1
    1e7c:	2f 93       	push	r18
    1e7e:	3f 93       	push	r19
    1e80:	4f 93       	push	r20
    1e82:	5f 93       	push	r21
    1e84:	6f 93       	push	r22
    1e86:	7f 93       	push	r23
    1e88:	8f 93       	push	r24
    1e8a:	9f 93       	push	r25
    1e8c:	af 93       	push	r26
    1e8e:	bf 93       	push	r27
    1e90:	ef 93       	push	r30
    1e92:	ff 93       	push	r31
	UART_RX_Service();
    1e94:	0e 94 05 04 	call	0x80a	; 0x80a <UART_RX_Service>
}
    1e98:	ff 91       	pop	r31
    1e9a:	ef 91       	pop	r30
    1e9c:	bf 91       	pop	r27
    1e9e:	af 91       	pop	r26
    1ea0:	9f 91       	pop	r25
    1ea2:	8f 91       	pop	r24
    1ea4:	7f 91       	pop	r23
    1ea6:	6f 91       	pop	r22
    1ea8:	5f 91       	pop	r21
    1eaa:	4f 91       	pop	r20
    1eac:	3f 91       	pop	r19
    1eae:	2f 91       	pop	r18
    1eb0:	0f 90       	pop	r0
    1eb2:	0f be       	out	0x3f, r0	; 63
    1eb4:	0f 90       	pop	r0
    1eb6:	1f 90       	pop	r1
    1eb8:	18 95       	reti

00001eba <__vector_19>:

//------------------------------ USART UDRE Interrupt vector
ISR(USART_UDRE_vect)
{
    1eba:	1f 92       	push	r1
    1ebc:	0f 92       	push	r0
    1ebe:	0f b6       	in	r0, 0x3f	; 63
    1ec0:	0f 92       	push	r0
    1ec2:	11 24       	eor	r1, r1
    1ec4:	2f 93       	push	r18
    1ec6:	3f 93       	push	r19
    1ec8:	4f 93       	push	r20
    1eca:	5f 93       	push	r21
    1ecc:	6f 93       	push	r22
    1ece:	7f 93       	push	r23
    1ed0:	8f 93       	push	r24
    1ed2:	9f 93       	push	r25
    1ed4:	af 93       	push	r26
    1ed6:	bf 93       	push	r27
    1ed8:	ef 93       	push	r30
    1eda:	ff 93       	push	r31
	UART_UDRE_TX_Service();
    1edc:	0e 94 e7 03 	call	0x7ce	; 0x7ce <UART_UDRE_TX_Service>
}
    1ee0:	ff 91       	pop	r31
    1ee2:	ef 91       	pop	r30
    1ee4:	bf 91       	pop	r27
    1ee6:	af 91       	pop	r26
    1ee8:	9f 91       	pop	r25
    1eea:	8f 91       	pop	r24
    1eec:	7f 91       	pop	r23
    1eee:	6f 91       	pop	r22
    1ef0:	5f 91       	pop	r21
    1ef2:	4f 91       	pop	r20
    1ef4:	3f 91       	pop	r19
    1ef6:	2f 91       	pop	r18
    1ef8:	0f 90       	pop	r0
    1efa:	0f be       	out	0x3f, r0	; 63
    1efc:	0f 90       	pop	r0
    1efe:	1f 90       	pop	r1
    1f00:	18 95       	reti

00001f02 <__vector_24>:

//------------------------------ TWI interrupt
ISR(TWI_vect)
{
    1f02:	1f 92       	push	r1
    1f04:	0f 92       	push	r0
    1f06:	0f b6       	in	r0, 0x3f	; 63
    1f08:	0f 92       	push	r0
    1f0a:	11 24       	eor	r1, r1
    1f0c:	2f 93       	push	r18
    1f0e:	3f 93       	push	r19
    1f10:	4f 93       	push	r20
    1f12:	5f 93       	push	r21
    1f14:	6f 93       	push	r22
    1f16:	7f 93       	push	r23
    1f18:	8f 93       	push	r24
    1f1a:	9f 93       	push	r25
    1f1c:	af 93       	push	r26
    1f1e:	bf 93       	push	r27
    1f20:	ef 93       	push	r30
    1f22:	ff 93       	push	r31
	I2C_TWIService();
    1f24:	0e 94 1d 02 	call	0x43a	; 0x43a <I2C_TWIService>
}
    1f28:	ff 91       	pop	r31
    1f2a:	ef 91       	pop	r30
    1f2c:	bf 91       	pop	r27
    1f2e:	af 91       	pop	r26
    1f30:	9f 91       	pop	r25
    1f32:	8f 91       	pop	r24
    1f34:	7f 91       	pop	r23
    1f36:	6f 91       	pop	r22
    1f38:	5f 91       	pop	r21
    1f3a:	4f 91       	pop	r20
    1f3c:	3f 91       	pop	r19
    1f3e:	2f 91       	pop	r18
    1f40:	0f 90       	pop	r0
    1f42:	0f be       	out	0x3f, r0	; 63
    1f44:	0f 90       	pop	r0
    1f46:	1f 90       	pop	r1
    1f48:	18 95       	reti

00001f4a <InitGPIO>:

//------------------------------ MCU IO initialization
inline void InitGPIO(void)
{
	// Power reduction initialize
	POWER_REDUCTION_INIT();
    1f4a:	94 e0       	ldi	r25, 0x04	; 4
    1f4c:	90 93 64 00 	sts	0x0064, r25	; 0x800064 <__TEXT_REGION_LENGTH__+0x7e0064>
	// Initialize systick timer
	SYSTICK_TIMER_INIT();
    1f50:	82 e0       	ldi	r24, 0x02	; 2
    1f52:	80 93 b0 00 	sts	0x00B0, r24	; 0x8000b0 <__TEXT_REGION_LENGTH__+0x7e00b0>
    1f56:	90 93 b1 00 	sts	0x00B1, r25	; 0x8000b1 <__TEXT_REGION_LENGTH__+0x7e00b1>
    1f5a:	9d e7       	ldi	r25, 0x7D	; 125
    1f5c:	90 93 b3 00 	sts	0x00B3, r25	; 0x8000b3 <__TEXT_REGION_LENGTH__+0x7e00b3>
    1f60:	10 92 b2 00 	sts	0x00B2, r1	; 0x8000b2 <__TEXT_REGION_LENGTH__+0x7e00b2>
	SYSTICK_INTERRUPT_ENABLE();
    1f64:	e0 e7       	ldi	r30, 0x70	; 112
    1f66:	f0 e0       	ldi	r31, 0x00	; 0
    1f68:	90 81       	ld	r25, Z
    1f6a:	92 60       	ori	r25, 0x02	; 2
    1f6c:	90 83       	st	Z, r25
	// Initialize timer for measurement
	MEASURING_TMR_INIT();
    1f6e:	14 bc       	out	0x24, r1	; 36
    1f70:	85 bd       	out	0x25, r24	; 37
    1f72:	ee e6       	ldi	r30, 0x6E	; 110
    1f74:	f0 e0       	ldi	r31, 0x00	; 0
    1f76:	90 81       	ld	r25, Z
    1f78:	9e 7f       	andi	r25, 0xFE	; 254
    1f7a:	90 83       	st	Z, r25
    1f7c:	16 bc       	out	0x26, r1	; 38
	// Initialize UART
	UART_INIT();
    1f7e:	10 92 c5 00 	sts	0x00C5, r1	; 0x8000c5 <__TEXT_REGION_LENGTH__+0x7e00c5>
    1f82:	93 e3       	ldi	r25, 0x33	; 51
    1f84:	90 93 c4 00 	sts	0x00C4, r25	; 0x8000c4 <__TEXT_REGION_LENGTH__+0x7e00c4>
    1f88:	e1 ec       	ldi	r30, 0xC1	; 193
    1f8a:	f0 e0       	ldi	r31, 0x00	; 0
    1f8c:	98 e0       	ldi	r25, 0x08	; 8
    1f8e:	90 83       	st	Z, r25
    1f90:	96 e0       	ldi	r25, 0x06	; 6
    1f92:	90 93 c2 00 	sts	0x00C2, r25	; 0x8000c2 <__TEXT_REGION_LENGTH__+0x7e00c2>
	UART_TX_INTERRUPT_ENABLE();
    1f96:	90 81       	ld	r25, Z
    1f98:	90 62       	ori	r25, 0x20	; 32
    1f9a:	90 83       	st	Z, r25
	// Initialize RTC IRQ input INT0
	X1226_IRQ_INIT();
    1f9c:	52 98       	cbi	0x0a, 2	; 10
    1f9e:	80 93 69 00 	sts	0x0069, r24	; 0x800069 <__TEXT_REGION_LENGTH__+0x7e0069>
    1fa2:	81 e0       	ldi	r24, 0x01	; 1
    1fa4:	8d bb       	out	0x1d, r24	; 29
	// Initialize button port
	BTN_INIT();
    1fa6:	3a 98       	cbi	0x07, 2	; 7
	// Initialize encoder port
	ENC_INIT();
    1fa8:	87 b1       	in	r24, 0x07	; 7
    1faa:	8c 7f       	andi	r24, 0xFC	; 252
    1fac:	87 b9       	out	0x07, r24	; 7
	// Initialize red led port
	LED_RED_INIT();
    1fae:	22 9a       	sbi	0x04, 2	; 4
    1fb0:	2a 98       	cbi	0x05, 2	; 5
	// Initialize yellow port
	LED_YELLOW_INIT();
    1fb2:	21 9a       	sbi	0x04, 1	; 4
    1fb4:	29 98       	cbi	0x05, 1	; 5
	// Initialize green led port
	LED_GRN_INIT();
    1fb6:	20 9a       	sbi	0x04, 0	; 4
    1fb8:	28 98       	cbi	0x05, 0	; 5
	// Initialize LCD back light control port
	BL_CTRL_INIT();
    1fba:	55 9a       	sbi	0x0a, 5	; 10
    1fbc:	5d 9a       	sbi	0x0b, 5	; 11
    1fbe:	08 95       	ret

00001fc0 <main>:

//------------------------------ Entry point
int main(void)
{
	// Main initialize
	InitGPIO();
    1fc0:	0e 94 a5 0f 	call	0x1f4a	; 0x1f4a <InitGPIO>
	InitMessages();
    1fc4:	0e 94 aa 0d 	call	0x1b54	; 0x1b54 <InitMessages>
	InitTimers();
    1fc8:	0e 94 41 0e 	call	0x1c82	; 0x1c82 <InitTimers>
	I2C_Init();
    1fcc:	0e 94 17 03 	call	0x62e	; 0x62e <I2C_Init>
	// FSMs initialize
	FSM_SYSTEM_Init();
    1fd0:	0e 94 b7 0b 	call	0x176e	; 0x176e <FSM_SYSTEM_Init>
	FSM_UART_Init();
    1fd4:	0e 94 77 0c 	call	0x18ee	; 0x18ee <FSM_UART_Init>
	FSM_PCF8574_Init();
    1fd8:	0e 94 d8 09 	call	0x13b0	; 0x13b0 <FSM_PCF8574_Init>
	FSM_LCD_Init();
    1fdc:	0e 94 ad 05 	call	0xb5a	; 0xb5a <FSM_LCD_Init>
	FSM_X1226_Init();
    1fe0:	0e 94 7d 0c 	call	0x18fa	; 0x18fa <FSM_X1226_Init>
	FSM_MHZ19B_Init();
    1fe4:	0e 94 12 09 	call	0x1224	; 0x1224 <FSM_MHZ19B_Init>
	FSM_DHT_Init();
    1fe8:	0e 94 ab 04 	call	0x956	; 0x956 <FSM_DHT_Init>
	FSM_BUTTON_Init();
    1fec:	0e 94 62 04 	call	0x8c4	; 0x8c4 <FSM_BUTTON_Init>
	FSM_ENC_Init();
    1ff0:	0e 94 51 05 	call	0xaa2	; 0xaa2 <FSM_ENC_Init>
	FSM_LEDS_Init();
    1ff4:	0e 94 45 08 	call	0x108a	; 0x108a <FSM_LEDS_Init>

	// Enable global interrupts
	sei();
    1ff8:	78 94       	sei

	// Main loop
    while (1) {
		// Processing software timers queue
		ProcessTimers(&systick);
    1ffa:	86 ee       	ldi	r24, 0xE6	; 230
    1ffc:	91 e0       	ldi	r25, 0x01	; 1
    1ffe:	0e 94 4f 0e 	call	0x1c9e	; 0x1c9e <ProcessTimers>
		// Processing FSMs
		FSM_SYSTEM_Process();
    2002:	0e 94 bd 0b 	call	0x177a	; 0x177a <FSM_SYSTEM_Process>
		FSM_UART_Process();
    2006:	0e 94 7a 0c 	call	0x18f4	; 0x18f4 <FSM_UART_Process>
		FSM_PCF8574_Process();
    200a:	0e 94 09 0a 	call	0x1412	; 0x1412 <FSM_PCF8574_Process>
		FSM_LCD_Process();
    200e:	0e 94 36 06 	call	0xc6c	; 0xc6c <FSM_LCD_Process>
		FSM_X1226_Process();
    2012:	0e 94 83 0c 	call	0x1906	; 0x1906 <FSM_X1226_Process>
		FSM_DHT_Process();
    2016:	0e 94 b4 04 	call	0x968	; 0x968 <FSM_DHT_Process>
		FSM_MHZ19B_Process();
    201a:	0e 94 26 09 	call	0x124c	; 0x124c <FSM_MHZ19B_Process>
		FSM_BUTTON_Process();
    201e:	0e 94 69 04 	call	0x8d2	; 0x8d2 <FSM_BUTTON_Process>
		FSM_ENC_Process();
    2022:	0e 94 56 05 	call	0xaac	; 0xaac <FSM_ENC_Process>
		FSM_LEDS_Process();
    2026:	0e 94 4a 08 	call	0x1094	; 0x1094 <FSM_LEDS_Process>

		// Processing messages queue
		ProcessMessages();
    202a:	0e 94 10 0e 	call	0x1c20	; 0x1c20 <ProcessMessages>
    202e:	e5 cf       	rjmp	.-54     	; 0x1ffa <main+0x3a>

00002030 <MENU_Change>:



void MENU_Change(menu_item_t* new_menu)
{
	if((void*)new_menu == (void*)&NULL_ENTRY)
    2030:	20 e0       	ldi	r18, 0x00	; 0
    2032:	8b 3a       	cpi	r24, 0xAB	; 171
    2034:	92 07       	cpc	r25, r18
    2036:	39 f0       	breq	.+14     	; 0x2046 <MENU_Change+0x16>
		return;
	selected_menu_item = new_menu;
    2038:	90 93 8e 03 	sts	0x038E, r25	; 0x80038e <selected_menu_item+0x1>
    203c:	80 93 8d 03 	sts	0x038D, r24	; 0x80038d <selected_menu_item>
	device.flags._menu_changed = 1;
    2040:	81 e0       	ldi	r24, 0x01	; 1
    2042:	80 93 ae 03 	sts	0x03AE, r24	; 0x8003ae <device+0x5>
    2046:	08 95       	ret

00002048 <MENU_Start>:
}

void MENU_Start(void)
{
	selected_menu_item = (menu_item_t *)&m_s1i1;
    2048:	88 ea       	ldi	r24, 0xA8	; 168
    204a:	92 e0       	ldi	r25, 0x02	; 2
    204c:	90 93 8e 03 	sts	0x038E, r25	; 0x80038e <selected_menu_item+0x1>
    2050:	80 93 8d 03 	sts	0x038D, r24	; 0x80038d <selected_menu_item>
	device.flags._menu_changed = 1;
    2054:	81 e0       	ldi	r24, 0x01	; 1
    2056:	80 93 ae 03 	sts	0x03AE, r24	; 0x8003ae <device+0x5>
    205a:	08 95       	ret

0000205c <MENU_GetMenuTextByShift>:
char *MENU_GetMenuTextByShift(int8_t shift)
{
	int8_t i;
	menu_item_t *temp_menu_item;

	if ((void*)selected_menu_item == (void*)&NULL_ENTRY)
    205c:	e0 91 8d 03 	lds	r30, 0x038D	; 0x80038d <selected_menu_item>
    2060:	f0 91 8e 03 	lds	r31, 0x038E	; 0x80038e <selected_menu_item+0x1>
    2064:	90 e0       	ldi	r25, 0x00	; 0
    2066:	eb 3a       	cpi	r30, 0xAB	; 171
    2068:	f9 07       	cpc	r31, r25
    206a:	f9 f0       	breq	.+62     	; 0x20aa <MENU_GetMenuTextByShift+0x4e>
		return (char *)strNULL;

	i = shift;
	temp_menu_item = selected_menu_item;
	if (i>0) {
    206c:	18 16       	cp	r1, r24
    206e:	9c f4       	brge	.+38     	; 0x2096 <MENU_GetMenuTextByShift+0x3a>
		while( i!=0 ) {
			if ((void*)temp_menu_item != (void*)&NULL_ENTRY) {
    2070:	90 e0       	ldi	r25, 0x00	; 0
    2072:	eb 3a       	cpi	r30, 0xAB	; 171
    2074:	f9 07       	cpc	r31, r25
    2076:	19 f0       	breq	.+6      	; 0x207e <MENU_GetMenuTextByShift+0x22>
				temp_menu_item = (menu_item_t *)pgm_read_word(&temp_menu_item->Next);
    2078:	25 91       	lpm	r18, Z+
    207a:	34 91       	lpm	r19, Z
    207c:	f9 01       	movw	r30, r18
    207e:	81 50       	subi	r24, 0x01	; 1
		return (char *)strNULL;

	i = shift;
	temp_menu_item = selected_menu_item;
	if (i>0) {
		while( i!=0 ) {
    2080:	b9 f7       	brne	.-18     	; 0x2070 <MENU_GetMenuTextByShift+0x14>
    2082:	0b c0       	rjmp	.+22     	; 0x209a <MENU_GetMenuTextByShift+0x3e>
			}
			i--;
		}
	} else {
		while( i!=0 ) {
			if ((void*)temp_menu_item != (void*)&NULL_ENTRY) {
    2084:	90 e0       	ldi	r25, 0x00	; 0
    2086:	eb 3a       	cpi	r30, 0xAB	; 171
    2088:	f9 07       	cpc	r31, r25
    208a:	21 f0       	breq	.+8      	; 0x2094 <MENU_GetMenuTextByShift+0x38>
				temp_menu_item = (menu_item_t *)pgm_read_word(&temp_menu_item->Previous);
    208c:	32 96       	adiw	r30, 0x02	; 2
    208e:	25 91       	lpm	r18, Z+
    2090:	34 91       	lpm	r19, Z
    2092:	f9 01       	movw	r30, r18
    2094:	8f 5f       	subi	r24, 0xFF	; 255
				temp_menu_item = (menu_item_t *)pgm_read_word(&temp_menu_item->Next);
			}
			i--;
		}
	} else {
		while( i!=0 ) {
    2096:	81 11       	cpse	r24, r1
    2098:	f5 cf       	rjmp	.-22     	; 0x2084 <MENU_GetMenuTextByShift+0x28>
			}
			i++;
		}
	}

	if ((void*)temp_menu_item == (void*)&NULL_ENTRY) {
    209a:	80 e0       	ldi	r24, 0x00	; 0
    209c:	eb 3a       	cpi	r30, 0xAB	; 171
    209e:	f8 07       	cpc	r31, r24
    20a0:	21 f0       	breq	.+8      	; 0x20aa <MENU_GetMenuTextByShift+0x4e>
		return (char *)strNULL;
	} else {
		return ((char *)pgm_read_word(&temp_menu_item->Text));
    20a2:	39 96       	adiw	r30, 0x09	; 9
    20a4:	85 91       	lpm	r24, Z+
    20a6:	94 91       	lpm	r25, Z
    20a8:	08 95       	ret
{
	int8_t i;
	menu_item_t *temp_menu_item;

	if ((void*)selected_menu_item == (void*)&NULL_ENTRY)
		return (char *)strNULL;
    20aa:	83 eb       	ldi	r24, 0xB3	; 179
    20ac:	92 e0       	ldi	r25, 0x02	; 2
	if ((void*)temp_menu_item == (void*)&NULL_ENTRY) {
		return (char *)strNULL;
	} else {
		return ((char *)pgm_read_word(&temp_menu_item->Text));
	}
}
    20ae:	08 95       	ret

000020b0 <MENU_GetChildMenuSymbolByShift>:
char *MENU_GetChildMenuSymbolByShift(int8_t shift)
{
	int8_t i;
	menu_item_t *temp_menu_item;

	if ((void*)selected_menu_item == (void*)&NULL_ENTRY)
    20b0:	e0 91 8d 03 	lds	r30, 0x038D	; 0x80038d <selected_menu_item>
    20b4:	f0 91 8e 03 	lds	r31, 0x038E	; 0x80038e <selected_menu_item+0x1>
    20b8:	20 e0       	ldi	r18, 0x00	; 0
    20ba:	eb 3a       	cpi	r30, 0xAB	; 171
    20bc:	f2 07       	cpc	r31, r18
    20be:	21 f1       	breq	.+72     	; 0x2108 <MENU_GetChildMenuSymbolByShift+0x58>
		return (char *)strNULL;

	i = shift;
	temp_menu_item = selected_menu_item;
	if (i>0) {
    20c0:	18 16       	cp	r1, r24
    20c2:	9c f4       	brge	.+38     	; 0x20ea <MENU_GetChildMenuSymbolByShift+0x3a>
		while( i!=0 ) {
			if ((void*)temp_menu_item != (void*)&NULL_ENTRY) {
    20c4:	90 e0       	ldi	r25, 0x00	; 0
    20c6:	eb 3a       	cpi	r30, 0xAB	; 171
    20c8:	f9 07       	cpc	r31, r25
    20ca:	19 f0       	breq	.+6      	; 0x20d2 <MENU_GetChildMenuSymbolByShift+0x22>
				temp_menu_item = (menu_item_t *)pgm_read_word(&temp_menu_item->Next);
    20cc:	25 91       	lpm	r18, Z+
    20ce:	34 91       	lpm	r19, Z
    20d0:	f9 01       	movw	r30, r18
    20d2:	81 50       	subi	r24, 0x01	; 1
		return (char *)strNULL;

	i = shift;
	temp_menu_item = selected_menu_item;
	if (i>0) {
		while( i!=0 ) {
    20d4:	b9 f7       	brne	.-18     	; 0x20c4 <MENU_GetChildMenuSymbolByShift+0x14>
    20d6:	0b c0       	rjmp	.+22     	; 0x20ee <MENU_GetChildMenuSymbolByShift+0x3e>
			}
			i--;
		}
	} else {
		while( i!=0 ) {
			if ((void*)temp_menu_item != (void*)&NULL_ENTRY) {
    20d8:	20 e0       	ldi	r18, 0x00	; 0
    20da:	eb 3a       	cpi	r30, 0xAB	; 171
    20dc:	f2 07       	cpc	r31, r18
    20de:	21 f0       	breq	.+8      	; 0x20e8 <MENU_GetChildMenuSymbolByShift+0x38>
				temp_menu_item = (menu_item_t *)pgm_read_word(&temp_menu_item->Previous);
    20e0:	32 96       	adiw	r30, 0x02	; 2
    20e2:	25 91       	lpm	r18, Z+
    20e4:	34 91       	lpm	r19, Z
    20e6:	f9 01       	movw	r30, r18
    20e8:	8f 5f       	subi	r24, 0xFF	; 255
				temp_menu_item = (menu_item_t *)pgm_read_word(&temp_menu_item->Next);
			}
			i--;
		}
	} else {
		while( i!=0 ) {
    20ea:	81 11       	cpse	r24, r1
    20ec:	f5 cf       	rjmp	.-22     	; 0x20d8 <MENU_GetChildMenuSymbolByShift+0x28>
			}
			i++;
		}
	}

	if ((void*)temp_menu_item == (void*)&NULL_ENTRY) {
    20ee:	80 e0       	ldi	r24, 0x00	; 0
    20f0:	eb 3a       	cpi	r30, 0xAB	; 171
    20f2:	f8 07       	cpc	r31, r24
    20f4:	49 f0       	breq	.+18     	; 0x2108 <MENU_GetChildMenuSymbolByShift+0x58>
		return (char *)strNULL;
	} else {
		if((char *)pgm_read_word(&temp_menu_item->Child) != (void *)&NULL_ENTRY) {
    20f6:	36 96       	adiw	r30, 0x06	; 6
    20f8:	85 91       	lpm	r24, Z+
    20fa:	94 91       	lpm	r25, Z
    20fc:	8b 5a       	subi	r24, 0xAB	; 171
    20fe:	90 40       	sbci	r25, 0x00	; 0
    2100:	19 f0       	breq	.+6      	; 0x2108 <MENU_GetChildMenuSymbolByShift+0x58>
			return (char *)LNG_SMB_ANGLE_BRACKET_RIGHT;
    2102:	85 e8       	ldi	r24, 0x85	; 133
    2104:	93 e0       	ldi	r25, 0x03	; 3
    2106:	08 95       	ret
		} else {
			return (char *)strNULL;
    2108:	83 eb       	ldi	r24, 0xB3	; 179
    210a:	92 e0       	ldi	r25, 0x02	; 2
		}
	}
    210c:	08 95       	ret

0000210e <__udivmodqi4>:
    210e:	99 1b       	sub	r25, r25
    2110:	79 e0       	ldi	r23, 0x09	; 9
    2112:	04 c0       	rjmp	.+8      	; 0x211c <__udivmodqi4_ep>

00002114 <__udivmodqi4_loop>:
    2114:	99 1f       	adc	r25, r25
    2116:	96 17       	cp	r25, r22
    2118:	08 f0       	brcs	.+2      	; 0x211c <__udivmodqi4_ep>
    211a:	96 1b       	sub	r25, r22

0000211c <__udivmodqi4_ep>:
    211c:	88 1f       	adc	r24, r24
    211e:	7a 95       	dec	r23
    2120:	c9 f7       	brne	.-14     	; 0x2114 <__udivmodqi4_loop>
    2122:	80 95       	com	r24
    2124:	08 95       	ret

00002126 <__udivmodhi4>:
    2126:	aa 1b       	sub	r26, r26
    2128:	bb 1b       	sub	r27, r27
    212a:	51 e1       	ldi	r21, 0x11	; 17
    212c:	07 c0       	rjmp	.+14     	; 0x213c <__udivmodhi4_ep>

0000212e <__udivmodhi4_loop>:
    212e:	aa 1f       	adc	r26, r26
    2130:	bb 1f       	adc	r27, r27
    2132:	a6 17       	cp	r26, r22
    2134:	b7 07       	cpc	r27, r23
    2136:	10 f0       	brcs	.+4      	; 0x213c <__udivmodhi4_ep>
    2138:	a6 1b       	sub	r26, r22
    213a:	b7 0b       	sbc	r27, r23

0000213c <__udivmodhi4_ep>:
    213c:	88 1f       	adc	r24, r24
    213e:	99 1f       	adc	r25, r25
    2140:	5a 95       	dec	r21
    2142:	a9 f7       	brne	.-22     	; 0x212e <__udivmodhi4_loop>
    2144:	80 95       	com	r24
    2146:	90 95       	com	r25
    2148:	bc 01       	movw	r22, r24
    214a:	cd 01       	movw	r24, r26
    214c:	08 95       	ret

0000214e <__tablejump2__>:
    214e:	ee 0f       	add	r30, r30
    2150:	ff 1f       	adc	r31, r31
    2152:	05 90       	lpm	r0, Z+
    2154:	f4 91       	lpm	r31, Z
    2156:	e0 2d       	mov	r30, r0
    2158:	09 94       	ijmp

0000215a <_exit>:
    215a:	f8 94       	cli

0000215c <__stop_program>:
    215c:	ff cf       	rjmp	.-2      	; 0x215c <__stop_program>
